ccopy_reg
_reconstructor
p0
(cstrictdoc.core.file_dependency_manager
FileDependencyManager
p1
c__builtin__
object
p2
Ntp3
Rp4
(dp5
Vpath_to_cache_dir
p6
V/build/output/_cache/0.10.1
p7
sVpath_to_cache
p8
V/build/output/_cache/0.10.1/dependencies
p9
sVdependencies_now
p10
(dp11
sVdependencies_prev
p12
(dp13
sVdependencies_must_renegerate
p14
c__builtin__
set
p15
((lp16
tp17
Rp18
sb.