ccopy_reg
_reconstructor
p0
(cstrictdoc.backend.sdoc.models.document
SDocDocument
p1
c__builtin__
object
p2
Ntp3
Rp4
(dp5
Vmid
p6
NsVtitle
p7
VWASM Interpreter for Safety - Requirements
p8
sVconfig
p9
g0
(cstrictdoc.backend.sdoc.models.document_config
DocumentConfig
p10
g2
Ntp11
Rp12
(dp13
Vparent
p14
g4
sVversion
p15
NsVdate
p16
NsVuid
p17
NsVclassification
p18
NsVrequirement_prefix
p19
NsVroot
p20
NsVenable_mid
p21
NsVmarkup
p22
NsVauto_levels
p23
I01
sVlayout
p24
NsVrequirement_style
p25
NsVview_style_tag
p26
NsVrequirement_in_toc
p27
NsVnode_in_toc_tag
p28
NsVdefault_view
p29
NsVng_auto_levels_specified
p30
I00
sVng_line_start
p31
I14
sVng_col_start
p32
I46
sVcustom_metadata
p33
NsbsVview
p34
g0
(cstrictdoc.backend.sdoc.models.document_view
DocumentView
p35
g2
Ntp36
Rp37
(dp38
g14
g4
sVviews
p39
(lp40
g0
(cstrictdoc.backend.sdoc.models.document_view
DefaultViewElement
p41
g2
Ntp42
Rp43
(dp44
g14
g37
sVview_id
p45
VNOT_RELEVANT
p46
sVtags
p47
(lp48
sVhidden_tags
p49
(lp50
sVname
p51
Nsbasg31
I38
sg32
I9
sbsVgrammar
p52
g0
(cstrictdoc.backend.sdoc.models.document_grammar
DocumentGrammar
p53
g2
Ntp54
Rp55
(dp56
g14
g4
sVelements
p57
(lp58
g0
(cstrictdoc.backend.sdoc.models.grammar_element
GrammarElement
p59
g2
Ntp60
Rp61
(dp62
g14
g55
sVtag
p63
VTEXT
p64
sVproperty_is_composite
p65
NsVproperty_prefix
p66
NsVproperty_view_style
p67
NsVproperty_view_style_lower
p68
NsVfields
p69
(lp70
g0
(cstrictdoc.backend.sdoc.models.grammar_element
GrammarElementFieldString
p71
g2
Ntp72
Rp73
(dp74
g7
VUID
p75
sVhuman_title
p76
NsVgef_type
p77
VString
p78
sVrequired
p79
I00
sg6
g0
(cstrictdoc.helpers.mid
MID
p80
c__builtin__
unicode
p81
V4d11c19a1272489c8b516087fa304d6c
p82
tp83
Rp84
sg14
Nsbag0
(g71
g2
Ntp85
Rp86
(dp87
g7
VSTATEMENT
p88
sg76
Nsg77
g78
sg79
I01
sg6
g0
(g80
g81
V89097c1d34b6458db48c90bb73c22432
p89
tp90
Rp91
sg14
NsbasVrelations
p92
(lp93
sVfields_map
p94
ccollections
OrderedDict
p95
(tRp96
g75
g73
sg88
g86
ssVfield_titles
p97
(lp98
g75
ag88
asVcontent_field
p99
(g88
I1
tp100
sV_multiline_field_index
p101
I1
sg6
g0
(g80
g81
Ve6a816cb6dc64f12b9a4f0fa8c0564b2
p102
tp103
Rp104
sg31
Nsg32
Nsbag0
(g59
g2
Ntp105
Rp106
(dp107
g14
g55
sg63
VREQUIREMENT
p108
sg65
Nsg66
Nsg67
Nsg68
Nsg69
(lp109
g0
(g71
g2
Ntp110
Rp111
(dp112
g7
g75
sg76
Nsg77
g78
sg79
I00
sg6
g0
(g80
g81
Veec06327e59240078c610042278f706c
p113
tp114
Rp115
sg14
Nsbag0
(g71
g2
Ntp116
Rp117
(dp118
g7
VLEVEL
p119
sg76
Nsg77
g78
sg79
I00
sg6
g0
(g80
g81
Vd74feafca8904e7281f447cbc4fcb694
p120
tp121
Rp122
sg14
Nsbag0
(g71
g2
Ntp123
Rp124
(dp125
g7
VSTATUS
p126
sg76
Nsg77
g78
sg79
I00
sg6
g0
(g80
g81
Vee8fbce203204a9fa79753b0f56db2b2
p127
tp128
Rp129
sg14
Nsbag0
(g71
g2
Ntp130
Rp131
(dp132
g7
VTAGS
p133
sg76
Nsg77
g78
sg79
I00
sg6
g0
(g80
g81
V8327aeb68d1e45998cdb76e9f6178bef
p134
tp135
Rp136
sg14
Nsbag0
(g71
g2
Ntp137
Rp138
(dp139
g7
VTITLE
p140
sg76
Nsg77
g78
sg79
I00
sg6
g0
(g80
g81
Vafa7a161c2074e7d8d99c0f8fe3f764f
p141
tp142
Rp143
sg14
Nsbag0
(g71
g2
Ntp144
Rp145
(dp146
g7
g88
sg76
Nsg77
g78
sg79
I00
sg6
g0
(g80
g81
V6dc76c72b1384224bda65e9e8aa81dbf
p147
tp148
Rp149
sg14
Nsbag0
(g71
g2
Ntp150
Rp151
(dp152
g7
VRATIONALE
p153
sg76
Nsg77
g78
sg79
I00
sg6
g0
(g80
g81
Vb0f61a06d6b845b0a94b90e0982415b8
p154
tp155
Rp156
sg14
Nsbag0
(g71
g2
Ntp157
Rp158
(dp159
g7
VCOMMENT
p160
sg76
Nsg77
g78
sg79
I00
sg6
g0
(g80
g81
V3d08c2a7092b45d280e8aa1d7d0b1a40
p161
tp162
Rp163
sg14
Nsbasg92
(lp164
g0
(cstrictdoc.backend.sdoc.models.grammar_element
GrammarElementRelationParent
p165
g2
Ntp166
Rp167
(dp168
g14
g106
sVrelation_type
p169
VParent
p170
sVrelation_role
p171
Nsg6
g0
(g80
g81
V548e60fc739f4155b70d1710ba439ff5
p172
tp173
Rp174
sbag0
(cstrictdoc.backend.sdoc.models.grammar_element
GrammarElementRelationFile
p175
g2
Ntp176
Rp177
(dp178
g14
g106
sg169
VFile
p179
sg171
Nsg6
g0
(g80
g81
V926ce9585b804644b76fea62863ef534
p180
tp181
Rp182
sbasg94
g95
(tRp183
g75
g111
sg119
g117
sg126
g124
sg133
g131
sg140
g138
sg88
g145
sg153
g151
sg160
g158
ssg97
(lp184
g75
ag119
ag126
ag133
ag140
ag88
ag153
ag160
asg99
(g88
I5
tp185
sg101
I5
sg6
g0
(g80
g81
V907fe5d6a86140d08b2e1bce35e02f43
p186
tp187
Rp188
sg31
Nsg32
NsbasVregistered_elements
p189
c__builtin__
set
p190
((lp191
g108
ag64
atp192
Rp193
sVelements_by_type
p194
(dp195
g64
g61
sg108
g106
ssVimport_from_file
p196
NsVis_default
p197
I01
sg31
Nsg32
NsbsVsection_contents
p198
(lp199
g0
(cstrictdoc.backend.sdoc.models.section
SDocSection
p200
g2
Ntp201
Rp202
(dp203
g6
Nsg17
NsVcustom_level
p204
Nsg7
VFunctional Requirements
p205
sg19
Nsg198
(lp206
g0
(cstrictdoc.backend.sdoc.models.node
SDocNode
p207
g2
Ntp208
Rp209
(dp210
Vnode_type
p211
VREQUIREMENT
p212
sg69
(lp213
g0
(cstrictdoc.backend.sdoc.models.node
SDocNodeField
p214
g2
Ntp215
Rp216
(dp217
Vfield_name
p218
VUID
p219
sVparts
p220
(lp221
VREQ-1
p222
asVmultiline__
p223
V
p224
sV_tx_position
p225
I118
sV_tx_position_end
p226
I129
sg14
g209
sVmultiline
p227
I00
sbag0
(g214
g2
Ntp228
Rp229
(dp230
g218
VTITLE
p231
sg220
(lp232
VResumable
p233
asg223
g224
sg225
I129
sg226
I146
sg14
g209
sg227
I00
sbag0
(g214
g2
Ntp234
Rp235
(dp236
g218
VSTATEMENT
p237
sg220
(lp238
VThe interpreter shall be resumable\u000a
p239
asg223
V>>>\u000a
p240
sg225
I146
sg226
I200
sg14
g209
sg227
I01
sbag0
(g214
g2
Ntp241
Rp242
(dp243
g218
VRATIONALE
p244
sg220
(lp245
VOperation with fuel or other implementations of bounded run-time requires that the interpreter can be halted.\u000aConversely, later on the interpreter may be resumed, as if it was not halted in the first place.\u000a
p246
asg223
V>>>\u000a
p247
sg225
I200
sg226
I426
sg14
g209
sg227
I01
sbasg92
(lp248
sg225
I104
sg226
I426
sg14
g202
sVis_composite
p249
I00
sg198
(lp250
sVhas_meta
p251
I01
sVfields_as_parsed
p252
g213
sVordered_fields_lookup
p253
g95
(tRp254
g219
(lp255
g216
asg231
(lp256
g229
asg237
(lp257
g235
asg244
(lp258
g242
assVng_level
p259
NsVng_document_reference
p260
g0
(cstrictdoc.backend.sdoc.document_reference
DocumentReference
p261
g2
Ntp262
Rp263
(dp264
V_document
p265
g4
sbsVng_including_document_reference
p266
g0
(g261
g2
Ntp267
Rp268
(dp269
g265
Nsbsg31
I7
sVng_line_end
p270
I17
sg32
I1
sVng_col_end
p271
I1
sVng_byte_start
p272
I104
sVng_byte_end
p273
I426
sVcontext
p274
g0
(cstrictdoc.backend.sdoc.models.node
SDocNodeContext
p275
g2
Ntp276
Rp277
(dp278
Vtitle_number_string
p279
NsbsVreserved_mid
p280
g0
(g80
g81
V79f7db1688964a7487ec06a495b32ab9
p281
tp282
Rp283
sVmid_permanent
p284
I00
sVng_resolved_custom_level
p285
Nsg204
NsVng_whitelisted
p286
I01
sVng_has_requirements
p287
I00
sbag0
(g207
g2
Ntp288
Rp289
(dp290
g211
VREQUIREMENT
p291
sg69
(lp292
g0
(g214
g2
Ntp293
Rp294
(dp295
g218
g219
sg220
(lp296
VREQ-3
p297
asg223
g224
sg225
I441
sg226
I452
sg14
g289
sg227
I00
sbag0
(g214
g2
Ntp298
Rp299
(dp300
g218
VTITLE
p301
sg220
(lp302
VBaremetal
p303
asg223
g224
sg225
I452
sg226
I469
sg14
g289
sg227
I00
sbag0
(g214
g2
Ntp304
Rp305
(dp306
g218
VSTATEMENT
p307
sg220
(lp308
VThe interpreter shall be executable on bare-metal environments\u000a
p309
asg223
V>>>\u000a
p310
sg225
I469
sg226
I551
sg14
g289
sg227
I01
sbag0
(g214
g2
Ntp311
Rp312
(dp313
g218
VRATIONALE
p314
sg220
(lp315
VNo reliance on any specific functionality from the provided execution environment is acceptable, as the interpreter shall be ready for embedding to any environment that Rust can compile for.\u000a
p316
asg223
V>>>\u000a
p317
sg225
I551
sg226
I761
sg14
g289
sg227
I01
sbasg92
(lp318
sg225
I427
sg226
I761
sg14
g202
sg249
I00
sg198
(lp319
sg251
I01
sg252
g292
sg253
g95
(tRp320
g219
(lp321
g294
asg301
(lp322
g299
asg307
(lp323
g305
asg314
(lp324
g312
assg259
Nsg260
g263
sg266
g268
sg31
I18
sg270
I27
sg32
I1
sg271
I1
sg272
I427
sg273
I761
sg274
g0
(g275
g2
Ntp325
Rp326
(dp327
g279
Nsbsg280
g0
(g80
g81
Ve3f9c219a2ea4db7bd1b6812cd4cc8cf
p328
tp329
Rp330
sg284
I00
sg285
Nsg204
Nsg286
I01
sg287
I00
sbag0
(g207
g2
Ntp331
Rp332
(dp333
g211
VREQUIREMENT
p334
sg69
(lp335
g0
(g214
g2
Ntp336
Rp337
(dp338
g218
g219
sg220
(lp339
VREQ-5
p340
asg223
g224
sg225
I776
sg226
I787
sg14
g332
sg227
I00
sbag0
(g214
g2
Ntp341
Rp342
(dp343
g218
VTITLE
p344
sg220
(lp345
VBounded execution
p346
asg223
g224
sg225
I787
sg226
I812
sg14
g332
sg227
I00
sbag0
(g214
g2
Ntp347
Rp348
(dp349
g218
VSTATEMENT
p350
sg220
(lp351
VThe interpreter shall yield back control flow eventually\u000a
p352
asg223
V>>>\u000a
p353
sg225
I812
sg226
I888
sg14
g332
sg227
I01
sbag0
(g214
g2
Ntp354
Rp355
(dp356
g218
VRATIONALE
p357
sg220
(lp358
VA user shall be able to call the interpreter with a bound, expecting a result in a finite amount of time or bytecode operations. Even if the bytecode itself does never finish execution (i.e. due to a infinite loop), the interpreter shall yield eventually, by pausing the bytecode execution.\u000a
p359
asg223
V>>>\u000a
p360
sg225
I888
sg226
I1198
sg14
g332
sg227
I01
sbag0
(g214
g2
Ntp361
Rp362
(dp363
g218
VCOMMENT
p364
sg220
(lp365
VIt is not acceptable to constraint the interpreter to only those bytecode instances for which the halting-problem is solvable.\u000a
p366
asg223
V>>>\u000a
p367
sg225
I1198
sg226
I1342
sg14
g332
sg227
I01
sbasg92
(lp368
sg225
I762
sg226
I1342
sg14
g202
sg249
I00
sg198
(lp369
sg251
I01
sg252
g335
sg253
g95
(tRp370
g219
(lp371
g337
asg344
(lp372
g342
asg350
(lp373
g348
asg357
(lp374
g355
asg364
(lp375
g362
assg259
Nsg260
g263
sg266
g268
sg31
I28
sg270
I40
sg32
I1
sg271
I1
sg272
I762
sg273
I1342
sg274
g0
(g275
g2
Ntp376
Rp377
(dp378
g279
Nsbsg280
g0
(g80
g81
Vd448e9fee6d24da381723ab8e421167b
p379
tp380
Rp381
sg284
I00
sg285
Nsg204
Nsg286
I01
sg287
I00
sbag0
(g207
g2
Ntp382
Rp383
(dp384
g211
VREQUIREMENT
p385
sg69
(lp386
g0
(g214
g2
Ntp387
Rp388
(dp389
g218
g219
sg220
(lp390
VREQ-12
p391
asg223
g224
sg225
I1357
sg226
I1369
sg14
g383
sg227
I00
sbag0
(g214
g2
Ntp392
Rp393
(dp394
g218
VTITLE
p395
sg220
(lp396
VMigrateable
p397
asg223
g224
sg225
I1369
sg226
I1388
sg14
g383
sg227
I00
sbag0
(g214
g2
Ntp398
Rp399
(dp400
g218
VSTATEMENT
p401
sg220
(lp402
VThe interpreter state shall be able to halt on one computer and continue execution on another\u000a
p403
asg223
V>>>\u000a
p404
sg225
I1388
sg226
I1501
sg14
g383
sg227
I01
sbag0
(g214
g2
Ntp405
Rp406
(dp407
g218
VRATIONALE
p408
sg220
(lp409
VThis enables various workflows in deployments of multiple computers. For load-balancing or redundancy purposes, running applications can be migrated to other computers without disruption.\u000a
p410
asg223
V>>>\u000a
p411
sg225
I1501
sg226
I1708
sg14
g383
sg227
I01
sbasg92
(lp412
sg225
I1343
sg226
I1708
sg14
g202
sg249
I00
sg198
(lp413
sg251
I01
sg252
g386
sg253
g95
(tRp414
g219
(lp415
g388
asg395
(lp416
g393
asg401
(lp417
g399
asg408
(lp418
g406
assg259
Nsg260
g263
sg266
g268
sg31
I41
sg270
I50
sg32
I1
sg271
I1
sg272
I1343
sg273
I1708
sg274
g0
(g275
g2
Ntp419
Rp420
(dp421
g279
Nsbsg280
g0
(g80
g81
V4ee28175c4a842f29d1a1cff229a95bd
p422
tp423
Rp424
sg284
I00
sg285
Nsg204
Nsg286
I01
sg287
I00
sbag0
(g207
g2
Ntp425
Rp426
(dp427
g211
VREQUIREMENT
p428
sg69
(lp429
g0
(g214
g2
Ntp430
Rp431
(dp432
g218
g219
sg220
(lp433
VREQ-14
p434
asg223
g224
sg225
I1723
sg226
I1735
sg14
g426
sg227
I00
sbag0
(g214
g2
Ntp435
Rp436
(dp437
g218
VTITLE
p438
sg220
(lp439
VNo Dependencies
p440
asg223
g224
sg225
I1735
sg226
I1758
sg14
g426
sg227
I00
sbag0
(g214
g2
Ntp441
Rp442
(dp443
g218
VSTATEMENT
p444
sg220
(lp445
VNo dependencies but those explicitly allowed by a requirement shall be used\u000a
p446
asg223
V>>>\u000a
p447
sg225
I1758
sg226
I1853
sg14
g426
sg227
I01
sbag0
(g214
g2
Ntp448
Rp449
(dp450
g218
VRATIONALE
p451
sg220
(lp452
VDependencies have to forego the full V&V process as well, which quickly adds enormous work.\u000a
p453
asg223
V>>>\u000a
p454
sg225
I1853
sg226
I1964
sg14
g426
sg227
I01
sbag0
(g214
g2
Ntp455
Rp456
(dp457
g218
VCOMMENT
p458
sg220
(lp459
VThis requirement constraints the usage and introduction of normal dependencies, but not Dev Dependencies [#]_ and not Build Dependencies [#]_ .\u000a\u000a.. [#] https://doc.rust-lang.org/cargo/reference/specifying-dependencies.html#development-dependencies\u000a.. [#] https://doc.rust-lang.org/cargo/reference/specifying-dependencies.html#build-dependencies\u000a
p460
asg223
V>>>\u000a
p461
sg225
I1964
sg226
I2326
sg14
g426
sg227
I01
sbag0
(g214
g2
Ntp462
Rp463
(dp464
g218
VCOMMENT
p465
sg220
(lp466
VExceptions to this, i.e. allowed dependencies, must refer to this requirement as their parent.\u000a
p467
asg223
V>>>\u000a
p468
sg225
I2326
sg226
I2438
sg14
g426
sg227
I01
sbag0
(g214
g2
Ntp469
Rp470
(dp471
g218
VCOMMENT
p472
sg220
(lp473
VAll requirements that allow a dependency must specify the exact version of the dependency (at least major, minor and patch release)\u000a
p474
asg223
V>>>\u000a
p475
sg225
I2438
sg226
I2587
sg14
g426
sg227
I01
sbasg92
(lp476
sg225
I1709
sg226
I2587
sg14
g202
sg249
I00
sg198
(lp477
sg251
I01
sg252
g429
sg253
g95
(tRp478
g219
(lp479
g431
asg438
(lp480
g436
asg444
(lp481
g442
asg451
(lp482
g449
asg458
(lp483
g456
ag463
ag470
assg259
Nsg260
g263
sg266
g268
sg31
I51
sg270
I72
sg32
I1
sg271
I1
sg272
I1709
sg273
I2587
sg274
g0
(g275
g2
Ntp484
Rp485
(dp486
g279
Nsbsg280
g0
(g80
g81
V9fc94a96f2fb4892a6d83d2ec33d4e55
p487
tp488
Rp489
sg284
I00
sg285
Nsg204
Nsg286
I01
sg287
I00
sbag0
(g200
g2
Ntp490
Rp491
(dp492
g6
Nsg17
Nsg204
Nsg7
VLow-Level Functional Requirements
p493
sg19
Nsg198
(lp494
g0
(g207
g2
Ntp495
Rp496
(dp497
g211
VREQUIREMENT
p498
sg69
(lp499
g0
(g214
g2
Ntp500
Rp501
(dp502
g218
g219
sg220
(lp503
VREQ-2
p504
asg223
g224
sg225
I2654
sg226
I2665
sg14
g496
sg227
I00
sbag0
(g214
g2
Ntp505
Rp506
(dp507
g218
VTITLE
p508
sg220
(lp509
VStackless
p510
asg223
g224
sg225
I2665
sg226
I2682
sg14
g496
sg227
I00
sbag0
(g214
g2
Ntp511
Rp512
(dp513
g218
VSTATEMENT
p514
sg220
(lp515
VThe interpreter shall be stackless\u000a
p516
asg223
V>>>\u000a
p517
sg225
I2682
sg226
I2736
sg14
g496
sg227
I01
sbag0
(g214
g2
Ntp518
Rp519
(dp520
g218
VRATIONALE
p521
sg220
(lp522
VA stackless interpreter is one that does not use function calls in the host environment to implement function calls inside the interpreter. Instead, the stack of the interpreted bytecode is stored in a traditional data structure (such as a Vec<u8>). Interpretation can be interrupted between any two virtual instructions of the bytecode, and crucially so resumed from there.\u000a\u000aFurther information: https://kyju.org/blog/piccolo-a-stackless-lua-interpreter/#a-stackless-interpreter-design\u000a
p523
asg223
V>>>\u000a
p524
sg225
I2736
sg226
I3242
sg14
g496
sg227
I01
sbasg92
(lp525
g0
(cstrictdoc.backend.sdoc.models.reference
ParentReqReference
p526
g2
Ntp527
Rp528
(dp529
Vref_uid
p530
VREQ-1
p531
sVrole
p532
Nsg225
I3253
sg226
I3283
sg14
g496
sVref_type
p533
g170
sg6
g0
(g80
g81
V3c7a9585186743238691c4c96e8e99b4
p534
tp535
Rp536
sbasg225
I2640
sg226
I3283
sg14
g491
sg249
I00
sg198
(lp537
sg251
I01
sg252
g499
sg253
g95
(tRp538
g219
(lp539
g501
asg508
(lp540
g506
asg514
(lp541
g512
asg521
(lp542
g519
assg259
Nsg260
g263
sg266
g268
sg31
I76
sg270
I90
sg32
I1
sg271
I1
sg272
I2640
sg273
I3283
sg274
g0
(g275
g2
Ntp543
Rp544
(dp545
g279
Nsbsg280
g0
(g80
g81
V66469bea5d7e476aad6f89727f699076
p546
tp547
Rp548
sg284
I00
sg285
Nsg204
Nsg286
I01
sg287
I00
sbag0
(g207
g2
Ntp549
Rp550
(dp551
g211
VREQUIREMENT
p552
sg69
(lp553
g0
(g214
g2
Ntp554
Rp555
(dp556
g218
g219
sg220
(lp557
VREQ-4
p558
asg223
g224
sg225
I3298
sg226
I3309
sg14
g550
sg227
I00
sbag0
(g214
g2
Ntp559
Rp560
(dp561
g218
VTITLE
p562
sg220
(lp563
Vno_std
p564
asg223
g224
sg225
I3309
sg226
I3323
sg14
g550
sg227
I00
sbag0
(g214
g2
Ntp565
Rp566
(dp567
g218
VSTATEMENT
p568
sg220
(lp569
VThe interpreter shall be implemented in no_std Rust\u000a
p570
asg223
V>>>\u000a
p571
sg225
I3323
sg226
I3394
sg14
g550
sg227
I01
sbag0
(g214
g2
Ntp572
Rp573
(dp574
g218
VRATIONALE
p575
sg220
(lp576
VOnly relying on the functionality that is provided by no_std enables execution on bare environments where operating system is available.\u000a
p577
asg223
V>>>\u000a
p578
sg225
I3394
sg226
I3550
sg14
g550
sg227
I01
sbag0
(g214
g2
Ntp579
Rp580
(dp581
g218
VCOMMENT
p582
sg220
(lp583
VReliance on alloc is allowable, as an allocator can be implemented without further reliance on the execution environment.\u000a
p584
asg223
V>>>\u000a
p585
sg225
I3550
sg226
I3689
sg14
g550
sg227
I01
sbasg92
(lp586
g0
(g526
g2
Ntp587
Rp588
(dp589
g530
VREQ-3
p590
sg532
Nsg225
I3700
sg226
I3730
sg14
g550
sg533
g170
sg6
g0
(g80
g81
Vf3715b464a2a424f90531ecba65d796c
p591
tp592
Rp593
sbasg225
I3284
sg226
I3730
sg14
g491
sg249
I00
sg198
(lp594
sg251
I01
sg252
g553
sg253
g95
(tRp595
g219
(lp596
g555
asg562
(lp597
g560
asg568
(lp598
g566
asg575
(lp599
g573
asg582
(lp600
g580
assg259
Nsg260
g263
sg266
g268
sg31
I91
sg270
I106
sg32
I1
sg271
I1
sg272
I3284
sg273
I3730
sg274
g0
(g275
g2
Ntp601
Rp602
(dp603
g279
Nsbsg280
g0
(g80
g81
V00c17d601240404f93afd6400698991b
p604
tp605
Rp606
sg284
I00
sg285
Nsg204
Nsg286
I01
sg287
I00
sbag0
(g207
g2
Ntp607
Rp608
(dp609
g211
VREQUIREMENT
p610
sg69
(lp611
g0
(g214
g2
Ntp612
Rp613
(dp614
g218
g219
sg220
(lp615
VREQ-6
p616
asg223
g224
sg225
I3745
sg226
I3756
sg14
g608
sg227
I00
sbag0
(g214
g2
Ntp617
Rp618
(dp619
g218
VTITLE
p620
sg220
(lp621
VFuel
p622
asg223
g224
sg225
I3756
sg226
I3768
sg14
g608
sg227
I00
sbag0
(g214
g2
Ntp623
Rp624
(dp625
g218
VSTATEMENT
p626
sg220
(lp627
VThe interpreter shall support fuel bounded execution\u000a
p628
asg223
V>>>\u000a
p629
sg225
I3768
sg226
I3840
sg14
g608
sg227
I01
sbag0
(g214
g2
Ntp630
Rp631
(dp632
g218
VRATIONALE
p633
sg220
(lp634
VFuel is a mechanism to limit the amount of bytecode operations conducted when calling the interpreter. Each bytecode instruction is associated with a specific amount of fuel consumed when executing it. The interpreter is provided a finite amount of fuel, that is deplete during execution, until the amount of fuel is insufficient to conduct further bytecode operations. At this point, the interpreter yields back the control flow. Later on, the execution may be resumed.\u000a\u000aFurther information: https://docs.rs/wasmtime/latest/wasmtime/struct.Config.html#method.consume_fuel\u000a
p635
asg223
V>>>\u000a
p636
sg225
I3840
sg226
I4432
sg14
g608
sg227
I01
sbasg92
(lp637
g0
(g526
g2
Ntp638
Rp639
(dp640
g530
VREQ-5
p641
sg532
Nsg225
I4443
sg226
I4473
sg14
g608
sg533
g170
sg6
g0
(g80
g81
V024f8ceb33b2417eb8989f518edfb9b1
p642
tp643
Rp644
sbasg225
I3731
sg226
I4473
sg14
g491
sg249
I00
sg198
(lp645
sg251
I01
sg252
g611
sg253
g95
(tRp646
g219
(lp647
g613
asg620
(lp648
g618
asg626
(lp649
g624
asg633
(lp650
g631
assg259
Nsg260
g263
sg266
g268
sg31
I107
sg270
I121
sg32
I1
sg271
I1
sg272
I3731
sg273
I4473
sg274
g0
(g275
g2
Ntp651
Rp652
(dp653
g279
Nsbsg280
g0
(g80
g81
V219351c7a0ee49b78792a6334237b0a7
p654
tp655
Rp656
sg284
I00
sg285
Nsg204
Nsg286
I01
sg287
I00
sbag0
(g207
g2
Ntp657
Rp658
(dp659
g211
VREQUIREMENT
p660
sg69
(lp661
g0
(g214
g2
Ntp662
Rp663
(dp664
g218
g219
sg220
(lp665
VREQ-13
p666
asg223
g224
sg225
I4488
sg226
I4500
sg14
g658
sg227
I00
sbag0
(g214
g2
Ntp667
Rp668
(dp669
g218
VTITLE
p670
sg220
(lp671
VDe-/Serializable
p672
asg223
g224
sg225
I4500
sg226
I4524
sg14
g658
sg227
I00
sbag0
(g214
g2
Ntp673
Rp674
(dp675
g218
VSTATEMENT
p676
sg220
(lp677
VThe interpreter state shall be de-/serializable\u000a
p678
asg223
V>>>\u000a
p679
sg225
I4524
sg226
I4591
sg14
g658
sg227
I01
sbag0
(g214
g2
Ntp680
Rp681
(dp682
g218
VRATIONALE
p683
sg220
(lp684
VIf the interpreter state can be serialized to and deserialized from a canonical representation, migration to other computers as well as check-point/lock-step like execution become simple to implement.\u000a
p685
asg223
V>>>\u000a
p686
sg225
I4591
sg226
I4811
sg14
g658
sg227
I01
sbasg92
(lp687
g0
(g526
g2
Ntp688
Rp689
(dp690
g530
VREQ-12
p691
sg532
Nsg225
I4822
sg226
I4853
sg14
g658
sg533
g170
sg6
g0
(g80
g81
Va2fb2fe5087349ea8455a6dacde4bf65
p692
tp693
Rp694
sbasg225
I4474
sg226
I4853
sg14
g491
sg249
I00
sg198
(lp695
sg251
I01
sg252
g661
sg253
g95
(tRp696
g219
(lp697
g663
asg670
(lp698
g668
asg676
(lp699
g674
asg683
(lp700
g681
assg259
Nsg260
g263
sg266
g268
sg31
I122
sg270
I134
sg32
I1
sg271
I1
sg272
I4474
sg273
I4853
sg274
g0
(g275
g2
Ntp701
Rp702
(dp703
g279
Nsbsg280
g0
(g80
g81
V621d7c306ce74f2f91869eff4cead586
p704
tp705
Rp706
sg284
I00
sg285
Nsg204
Nsg286
I01
sg287
I00
sbag0
(g207
g2
Ntp707
Rp708
(dp709
g211
VREQUIREMENT
p710
sg69
(lp711
g0
(g214
g2
Ntp712
Rp713
(dp714
g218
g219
sg220
(lp715
VREQ-15
p716
asg223
g224
sg225
I4868
sg226
I4880
sg14
g708
sg227
I00
sbag0
(g214
g2
Ntp717
Rp718
(dp719
g218
VTITLE
p720
sg220
(lp721
VAllow log dependency
p722
asg223
g224
sg225
I4880
sg226
I4908
sg14
g708
sg227
I00
sbag0
(g214
g2
Ntp723
Rp724
(dp725
g218
VSTATEMENT
p726
sg220
(lp727
VThe interpreter shall have an optional dependency on the ``log`` crate version ``0.4.22``\u000a
p728
asg223
V>>>\u000a
p729
sg225
I4908
sg226
I5017
sg14
g708
sg227
I01
sbag0
(g214
g2
Ntp730
Rp731
(dp732
g218
VRATIONALE
p733
sg220
(lp734
VLogging is an essential tool to make a system observable, and aid in debugging. Bespoke crate is widely used in the Rust ecosystem and can be attached to any (or no) logging backend. Using conditional compilation, all of the ``log`` crate's footprint in the WASM interpreter (foremost the ``debug``, ``error``, ``info``, ``trace`` and ``warn`` macro) can be expanded to empty statements to avoid **any** run-time impact when opting out of the dependency on ``log``.\u000a
p735
asg223
V>>>\u000a
p736
sg225
I5017
sg226
I5502
sg14
g708
sg227
I01
sbasg92
(lp737
g0
(g526
g2
Ntp738
Rp739
(dp740
g530
VREQ-14
p741
sg532
Nsg225
I5513
sg226
I5544
sg14
g708
sg533
g170
sg6
g0
(g80
g81
V3735b59242dd42ee85b62dfcd6e83715
p742
tp743
Rp744
sbasg225
I4854
sg226
I5544
sg14
g491
sg249
I00
sg198
(lp745
sg251
I01
sg252
g711
sg253
g95
(tRp746
g219
(lp747
g713
asg720
(lp748
g718
asg726
(lp749
g724
asg733
(lp750
g731
assg259
Nsg260
g263
sg266
g268
sg31
I135
sg270
I147
sg32
I1
sg271
I1
sg272
I4854
sg273
I5544
sg274
g0
(g275
g2
Ntp751
Rp752
(dp753
g279
Nsbsg280
g0
(g80
g81
V524ca795766c478497a086ad9e13f165
p754
tp755
Rp756
sg284
I00
sg285
Nsg204
Nsg286
I01
sg287
I00
sbag0
(g207
g2
Ntp757
Rp758
(dp759
g211
VREQUIREMENT
p760
sg69
(lp761
g0
(g214
g2
Ntp762
Rp763
(dp764
g218
g219
sg220
(lp765
VREQ-16
p766
asg223
g224
sg225
I5559
sg226
I5571
sg14
g758
sg227
I00
sbag0
(g214
g2
Ntp767
Rp768
(dp769
g218
VTITLE
p770
sg220
(lp771
VAllow libm dependency
p772
asg223
g224
sg225
I5571
sg226
I5600
sg14
g758
sg227
I00
sbag0
(g214
g2
Ntp773
Rp774
(dp775
g218
VSTATEMENT
p776
sg220
(lp777
VThe interpreter may depend on the ``libm`` crate version ``0.2.8``\u000a
p778
asg223
V>>>\u000a
p779
sg225
I5600
sg226
I5686
sg14
g758
sg227
I01
sbag0
(g214
g2
Ntp780
Rp781
(dp782
g218
VRATIONALE
p783
sg220
(lp784
VRust does not expose all floating point operations in a bare-metal (as in ``no_std``) target, as to not introduce any dependency on the C standard library's ``libm`` (respective PR: https://github.com/rust-lang/rust/pull/27823). However, we identified at least the following operations to be required for WASM interpretation while unavailable in ``no_std``:\u000a\u000a- ``abs``\u000a- ``ceil``\u000a- ``floor``\u000a- ``trunc``\u000a- ``round``\u000a- ``sqrt``\u000a- ``copysign``\u000a\u000aIn order use these operations, having the ``libm`` crate as dependencies of the WASM interpreter is an acceptable trade-off.\u000a
p785
asg223
V>>>\u000a
p786
sg225
I5686
sg226
I6273
sg14
g758
sg227
I01
sbasg92
(lp787
g0
(g526
g2
Ntp788
Rp789
(dp790
g530
VREQ-14
p791
sg532
Nsg225
I6284
sg226
I6315
sg14
g758
sg533
g170
sg6
g0
(g80
g81
Vf89712a03c9b4e80965d80a86f109770
p792
tp793
Rp794
sbasg225
I5545
sg226
I6315
sg14
g491
sg249
I00
sg198
(lp795
sg251
I01
sg252
g761
sg253
g95
(tRp796
g219
(lp797
g763
asg770
(lp798
g768
asg776
(lp799
g774
asg783
(lp800
g781
assg259
Nsg260
g263
sg266
g268
sg31
I148
sg270
I170
sg32
I1
sg271
I1
sg272
I5545
sg273
I6315
sg274
g0
(g275
g2
Ntp801
Rp802
(dp803
g279
Nsbsg280
g0
(g80
g81
V641e2f23e0dd4d4688fc4c3a79660c0b
p804
tp805
Rp806
sg284
I00
sg285
Nsg204
Nsg286
I01
sg287
I00
sbag0
(g207
g2
Ntp807
Rp808
(dp809
g211
VREQUIREMENT
p810
sg69
(lp811
g0
(g214
g2
Ntp812
Rp813
(dp814
g218
g219
sg220
(lp815
VREQ-17
p816
asg223
g224
sg225
I6330
sg226
I6342
sg14
g808
sg227
I00
sbag0
(g214
g2
Ntp817
Rp818
(dp819
g218
VTITLE
p820
sg220
(lp821
VMinimum Supported Rust Version (MSRV)
p822
asg223
g224
sg225
I6342
sg226
I6387
sg14
g808
sg227
I00
sbag0
(g214
g2
Ntp823
Rp824
(dp825
g218
VSTATEMENT
p826
sg220
(lp827
VThe interpreter shall compile on Rust ``1.76.0`` and later versions\u000a
p828
asg223
V>>>\u000a
p829
sg225
I6387
sg226
I6474
sg14
g808
sg227
I01
sbag0
(g214
g2
Ntp830
Rp831
(dp832
g218
VRATIONALE
p833
sg220
(lp834
VAn MSRV should be clearly stated to specify which toolchain is acceptable.\u000a
p835
asg223
V>>>\u000a
p836
sg225
I6474
sg226
I6568
sg14
g808
sg227
I01
sbasg92
(lp837
sg225
I6316
sg226
I6568
sg14
g491
sg249
I00
sg198
(lp838
sg251
I01
sg252
g811
sg253
g95
(tRp839
g219
(lp840
g813
asg820
(lp841
g818
asg826
(lp842
g824
asg833
(lp843
g831
assg259
Nsg260
g263
sg266
g268
sg31
I171
sg270
I180
sg32
I1
sg271
I1
sg272
I6316
sg273
I6568
sg274
g0
(g275
g2
Ntp844
Rp845
(dp846
g279
Nsbsg280
g0
(g80
g81
Vf38fb58bd1ea4e3db6ce4b7dc50aa38e
p847
tp848
Rp849
sg284
I00
sg285
Nsg204
Nsg286
I01
sg287
I00
sbasg225
I2588
sg226
I6580
sg14
g202
sVreserved_uid
p850
NsVreserved_title
p851
g493
sg285
Nsg259
Nsg287
I01
sg260
g263
sg266
g268
sg274
g0
(cstrictdoc.backend.sdoc.models.section
SectionContext
p852
g2
Ntp853
Rp854
(dp855
g279
Nsbsg280
g0
(g80
g81
Vabc17ba8d62f4efdb432830d6a5f2f4a
p856
tp857
Rp858
sg284
I00
sg286
I01
sg31
I73
sg270
I182
sg32
I1
sg271
I1
sg272
I2588
sg273
I6580
sbasg225
I62
sg226
I6592
sg14
g4
sg850
Nsg851
g205
sg285
Nsg259
Nsg287
I01
sg260
g263
sg266
g268
sg274
g0
(g852
g2
Ntp859
Rp860
(dp861
g279
Nsbsg280
g0
(g80
g81
V89baa9aa5a1149919bb26efa96c64042
p862
tp863
Rp864
sg284
I00
sg286
I01
sg31
I4
sg270
I184
sg32
I1
sg271
I1
sg272
I62
sg273
I6592
sbag0
(g200
g2
Ntp865
Rp866
(dp867
g6
Nsg17
Nsg204
Nsg7
VObservability Requirements
p868
sg19
Nsg198
(lp869
g0
(g207
g2
Ntp870
Rp871
(dp872
g211
VREQUIREMENT
p873
sg69
(lp874
g0
(g214
g2
Ntp875
Rp876
(dp877
g218
g219
sg220
(lp878
VREQ-7
p879
asg223
g224
sg225
I6652
sg226
I6663
sg14
g871
sg227
I00
sbag0
(g214
g2
Ntp880
Rp881
(dp882
g218
VTITLE
p883
sg220
(lp884
VInstrumentation
p885
asg223
g224
sg225
I6663
sg226
I6686
sg14
g871
sg227
I00
sbag0
(g214
g2
Ntp886
Rp887
(dp888
g218
VSTATEMENT
p889
sg220
(lp890
VThe interpreter shall implement means for instrumentation\u000a
p891
asg223
V>>>\u000a
p892
sg225
I6686
sg226
I6763
sg14
g871
sg227
I01
sbag0
(g214
g2
Ntp893
Rp894
(dp895
g218
VRATIONALE
p896
sg220
(lp897
VInstrumentation is needed to generate evidence for certification. Instrumentation eases debugging. Instrumentation enables elaborate run-time monitoring.\u000a
p898
asg223
V>>>\u000a
p899
sg225
I6763
sg226
I6936
sg14
g871
sg227
I01
sbasg92
(lp900
sg225
I6638
sg226
I6936
sg14
g866
sg249
I00
sg198
(lp901
sg251
I01
sg252
g874
sg253
g95
(tRp902
g219
(lp903
g876
asg883
(lp904
g881
asg889
(lp905
g887
asg896
(lp906
g894
assg259
Nsg260
g263
sg266
g268
sg31
I188
sg270
I197
sg32
I1
sg271
I1
sg272
I6638
sg273
I6936
sg274
g0
(g275
g2
Ntp907
Rp908
(dp909
g279
Nsbsg280
g0
(g80
g81
V37714101938c4c79b0b174c9b5ec302e
p910
tp911
Rp912
sg284
I00
sg285
Nsg204
Nsg286
I01
sg287
I00
sbag0
(g200
g2
Ntp913
Rp914
(dp915
g6
Nsg17
Nsg204
Nsg7
VLow-Level Observability Requirements
p916
sg19
Nsg198
(lp917
g0
(g207
g2
Ntp918
Rp919
(dp920
g211
VREQUIREMENT
p921
sg69
(lp922
g0
(g214
g2
Ntp923
Rp924
(dp925
g218
g219
sg220
(lp926
VREQ-8
p927
asg223
g224
sg225
I7006
sg226
I7017
sg14
g919
sg227
I00
sbag0
(g214
g2
Ntp928
Rp929
(dp930
g218
VTITLE
p931
sg220
(lp932
VStatement Coverage
p933
asg223
g224
sg225
I7017
sg226
I7043
sg14
g919
sg227
I00
sbag0
(g214
g2
Ntp934
Rp935
(dp936
g218
VSTATEMENT
p937
sg220
(lp938
VThe instrumentation shall enable the measurement of statement coverage\u000a
p939
asg223
V>>>\u000a
p940
sg225
I7043
sg226
I7133
sg14
g919
sg227
I01
sbag0
(g214
g2
Ntp941
Rp942
(dp943
g218
VRATIONALE
p944
sg220
(lp945
VStatement coverage is required by DO-178C starting at DAL-C (6.4.4.c)\u000a
p946
asg223
V>>>\u000a
p947
sg225
I7133
sg226
I7222
sg14
g919
sg227
I01
sbasg92
(lp948
g0
(g526
g2
Ntp949
Rp950
(dp951
g530
VREQ-7
p952
sg532
Nsg225
I7233
sg226
I7263
sg14
g919
sg533
g170
sg6
g0
(g80
g81
Va8417586dcd94e79b2afff399e76b921
p953
tp954
Rp955
sbag0
(g526
g2
Ntp956
Rp957
(dp958
g530
VREQ-11
p959
sg532
Nsg225
I7263
sg226
I7294
sg14
g919
sg533
g170
sg6
g0
(g80
g81
V9f4d1e7046b148b78522c9dd264e117f
p960
tp961
Rp962
sbasg225
I6992
sg226
I7294
sg14
g914
sg249
I00
sg198
(lp963
sg251
I01
sg252
g922
sg253
g95
(tRp964
g219
(lp965
g924
asg931
(lp966
g929
asg937
(lp967
g935
asg944
(lp968
g942
assg259
Nsg260
g263
sg266
g268
sg31
I201
sg270
I215
sg32
I1
sg271
I1
sg272
I6992
sg273
I7294
sg274
g0
(g275
g2
Ntp969
Rp970
(dp971
g279
Nsbsg280
g0
(g80
g81
Veabc2c91225a45c28f30b125df876bf3
p972
tp973
Rp974
sg284
I00
sg285
Nsg204
Nsg286
I01
sg287
I00
sbag0
(g207
g2
Ntp975
Rp976
(dp977
g211
VREQUIREMENT
p978
sg69
(lp979
g0
(g214
g2
Ntp980
Rp981
(dp982
g218
g219
sg220
(lp983
VREQ-9
p984
asg223
g224
sg225
I7309
sg226
I7320
sg14
g976
sg227
I00
sbag0
(g214
g2
Ntp985
Rp986
(dp987
g218
VTITLE
p988
sg220
(lp989
VDecision Coverage
p990
asg223
g224
sg225
I7320
sg226
I7345
sg14
g976
sg227
I00
sbag0
(g214
g2
Ntp991
Rp992
(dp993
g218
VSTATEMENT
p994
sg220
(lp995
VThe instrumentation shall enable the measurement of decision coverage\u000a
p996
asg223
V>>>\u000a
p997
sg225
I7345
sg226
I7434
sg14
g976
sg227
I01
sbag0
(g214
g2
Ntp998
Rp999
(dp1000
g218
VRATIONALE
p1001
sg220
(lp1002
VDecision coverage is required by DO-178C starting at DAL-B (6.4.4.c)\u000a
p1003
asg223
V>>>\u000a
p1004
sg225
I7434
sg226
I7522
sg14
g976
sg227
I01
sbasg92
(lp1005
g0
(g526
g2
Ntp1006
Rp1007
(dp1008
g530
VREQ-7
p1009
sg532
Nsg225
I7533
sg226
I7563
sg14
g976
sg533
g170
sg6
g0
(g80
g81
V134fdda5f4374a9c97f24ab75ba9eb9e
p1010
tp1011
Rp1012
sbag0
(g526
g2
Ntp1013
Rp1014
(dp1015
g530
VREQ-11
p1016
sg532
Nsg225
I7563
sg226
I7594
sg14
g976
sg533
g170
sg6
g0
(g80
g81
V57d75556973a4bddaca734e44cd596e8
p1017
tp1018
Rp1019
sbasg225
I7295
sg226
I7594
sg14
g914
sg249
I00
sg198
(lp1020
sg251
I01
sg252
g979
sg253
g95
(tRp1021
g219
(lp1022
g981
asg988
(lp1023
g986
asg994
(lp1024
g992
asg1001
(lp1025
g999
assg259
Nsg260
g263
sg266
g268
sg31
I216
sg270
I230
sg32
I1
sg271
I1
sg272
I7295
sg273
I7594
sg274
g0
(g275
g2
Ntp1026
Rp1027
(dp1028
g279
Nsbsg280
g0
(g80
g81
Vfb2599569aab4610bad20b6a83d4210d
p1029
tp1030
Rp1031
sg284
I00
sg285
Nsg204
Nsg286
I01
sg287
I00
sbag0
(g207
g2
Ntp1032
Rp1033
(dp1034
g211
VREQUIREMENT
p1035
sg69
(lp1036
g0
(g214
g2
Ntp1037
Rp1038
(dp1039
g218
g219
sg220
(lp1040
VREQ-10
p1041
asg223
g224
sg225
I7609
sg226
I7621
sg14
g1033
sg227
I00
sbag0
(g214
g2
Ntp1042
Rp1043
(dp1044
g218
VTITLE
p1045
sg220
(lp1046
VModified Condition/Decision Coverage
p1047
asg223
g224
sg225
I7621
sg226
I7665
sg14
g1033
sg227
I00
sbag0
(g214
g2
Ntp1048
Rp1049
(dp1050
g218
VSTATEMENT
p1051
sg220
(lp1052
VThe instrumentation shall enable the measurement of modified condition/decision coverage\u000a
p1053
asg223
V>>>\u000a
p1054
sg225
I7665
sg226
I7773
sg14
g1033
sg227
I01
sbag0
(g214
g2
Ntp1055
Rp1056
(dp1057
g218
VRATIONALE
p1058
sg220
(lp1059
VModified condition/decision coverage is required by DO-178C starting at DAL-A (6.4.4.c)\u000a
p1060
asg223
V>>>\u000a
p1061
sg225
I7773
sg226
I7880
sg14
g1033
sg227
I01
sbasg92
(lp1062
g0
(g526
g2
Ntp1063
Rp1064
(dp1065
g530
VREQ-7
p1066
sg532
Nsg225
I7891
sg226
I7921
sg14
g1033
sg533
g170
sg6
g0
(g80
g81
Veb9c320c3a944f6a9ab067df7b463a6e
p1067
tp1068
Rp1069
sbag0
(g526
g2
Ntp1070
Rp1071
(dp1072
g530
VREQ-11
p1073
sg532
Nsg225
I7921
sg226
I7952
sg14
g1033
sg533
g170
sg6
g0
(g80
g81
V95e0a1f056ae48a5a431c709f7737c7c
p1074
tp1075
Rp1076
sbasg225
I7595
sg226
I7952
sg14
g914
sg249
I00
sg198
(lp1077
sg251
I01
sg252
g1036
sg253
g95
(tRp1078
g219
(lp1079
g1038
asg1045
(lp1080
g1043
asg1051
(lp1081
g1049
asg1058
(lp1082
g1056
assg259
Nsg260
g263
sg266
g268
sg31
I231
sg270
I245
sg32
I1
sg271
I1
sg272
I7595
sg273
I7952
sg274
g0
(g275
g2
Ntp1083
Rp1084
(dp1085
g279
Nsbsg280
g0
(g80
g81
V0bbe0ea0c4334f269f9ce390e26b463d
p1086
tp1087
Rp1088
sg284
I00
sg285
Nsg204
Nsg286
I01
sg287
I00
sbag0
(g207
g2
Ntp1089
Rp1090
(dp1091
g211
VREQUIREMENT
p1092
sg69
(lp1093
g0
(g214
g2
Ntp1094
Rp1095
(dp1096
g218
g219
sg220
(lp1097
VREQ-11
p1098
asg223
g224
sg225
I7967
sg226
I7979
sg14
g1090
sg227
I00
sbag0
(g214
g2
Ntp1099
Rp1100
(dp1101
g218
VTITLE
p1102
sg220
(lp1103
VCertification Evidence
p1104
asg223
g224
sg225
I7979
sg226
I8009
sg14
g1090
sg227
I00
sbag0
(g214
g2
Ntp1105
Rp1106
(dp1107
g218
VSTATEMENT
p1108
sg220
(lp1109
VThe interpreter shall support the generation of certification evidence\u000a
p1110
asg223
V>>>\u000a
p1111
sg225
I8009
sg226
I8099
sg14
g1090
sg227
I01
sbasg92
(lp1112
sg225
I7953
sg226
I8099
sg14
g914
sg249
I00
sg198
(lp1113
sg251
I01
sg252
g1093
sg253
g95
(tRp1114
g219
(lp1115
g1095
asg1102
(lp1116
g1100
asg1108
(lp1117
g1106
assg259
Nsg260
g263
sg266
g268
sg31
I246
sg270
I252
sg32
I1
sg271
I1
sg272
I7953
sg273
I8099
sg274
g0
(g275
g2
Ntp1118
Rp1119
(dp1120
g279
Nsbsg280
g0
(g80
g81
V31cc1f6482e14ce9b7a044f024aef19b
p1121
tp1122
Rp1123
sg284
I00
sg285
Nsg204
Nsg286
I01
sg287
I00
sbasg225
I6937
sg226
I8111
sg14
g866
sg850
Nsg851
g916
sg285
Nsg259
Nsg287
I01
sg260
g263
sg266
g268
sg274
g0
(g852
g2
Ntp1124
Rp1125
(dp1126
g279
Nsbsg280
g0
(g80
g81
Vf9a247370f914907900a9d58779e6c93
p1127
tp1128
Rp1129
sg284
I00
sg286
I01
sg31
I198
sg270
I254
sg32
I1
sg271
I1
sg272
I6937
sg273
I8111
sbasg225
I6593
sg226
I8123
sg14
g4
sg850
Nsg851
g868
sg285
Nsg259
Nsg287
I01
sg260
g263
sg266
g268
sg274
g0
(g852
g2
Ntp1130
Rp1131
(dp1132
g279
Nsbsg280
g0
(g80
g81
Ve735c661f1c04693b29c899a01a737c1
p1133
tp1134
Rp1135
sg284
I00
sg286
I01
sg31
I185
sg270
I256
sg32
I1
sg271
I1
sg272
I6593
sg273
I8123
sbasg225
I0
sg226
I8123
sV_tx_filename
p1136
V/nix/store/cnxs0vqz9nxgacqdh9ijq3b5v85h9s82-requirements/requirements.sdoc
p1137
sV_tx_metamodel
p1138
NsV_tx_model_params
p1139
NsV_tx_parser
p1140
Nsg851
g8
sVis_bundle_document
p1141
I00
sVfragments_from_files
p1142
(lp1143
sg259
I0
sg287
I01
sVmeta
p1144
Nsg280
g0
(g80
g81
V7216a668328d48bea20b1b22f5429bab
p1145
tp1146
Rp1147
sg284
I00
sVincluded_documents
p1148
(lp1149
sg274
g0
(cstrictdoc.backend.sdoc.models.document
SDocDocumentContext
p1150
g2
Ntp1151
Rp1152
(dp1153
g279
Nsbsg266
g268
sVng_including_document_from_file
p1154
NsV_tx_attrs
p1155
NsV_tx_peg_rule
p1156
Nsb.