ccopy_reg
_reconstructor
p0
(cstrictdoc.backend.sdoc.models.document
SDocDocument
p1
c__builtin__
object
p2
Ntp3
Rp4
(dp5
Vmid
p6
NsVtitle
p7
VWASM Interpreter for Safety - Requirements
p8
sVconfig
p9
g0
(cstrictdoc.backend.sdoc.models.document_config
DocumentConfig
p10
g2
Ntp11
Rp12
(dp13
Vparent
p14
g4
sVversion
p15
NsVdate
p16
NsVuid
p17
NsVclassification
p18
NsVrequirement_prefix
p19
NsVroot
p20
NsVenable_mid
p21
NsVmarkup
p22
NsVauto_levels
p23
I01
sVlayout
p24
NsVrequirement_style
p25
NsVview_style_tag
p26
NsVrequirement_in_toc
p27
NsVnode_in_toc_tag
p28
NsVdefault_view
p29
NsVng_auto_levels_specified
p30
I00
sVng_line_start
p31
I14
sVng_col_start
p32
I44
sVcustom_metadata
p33
NsbsVview
p34
g0
(cstrictdoc.backend.sdoc.models.document_view
DocumentView
p35
g2
Ntp36
Rp37
(dp38
g14
g4
sVviews
p39
(lp40
g0
(cstrictdoc.backend.sdoc.models.document_view
DefaultViewElement
p41
g2
Ntp42
Rp43
(dp44
g14
g37
sVview_id
p45
VNOT_RELEVANT
p46
sVtags
p47
(lp48
sVhidden_tags
p49
(lp50
sVname
p51
Nsbasg31
I38
sg32
I7
sbsVgrammar
p52
g0
(cstrictdoc.backend.sdoc.models.document_grammar
DocumentGrammar
p53
g2
Ntp54
Rp55
(dp56
g14
g4
sVelements
p57
(lp58
g0
(cstrictdoc.backend.sdoc.models.grammar_element
GrammarElement
p59
g2
Ntp60
Rp61
(dp62
g14
g55
sVtag
p63
VSECTION
p64
sVproperty_is_composite
p65
I01
sVproperty_prefix
p66
NsVproperty_view_style
p67
NsVproperty_view_style_lower
p68
NsVfields
p69
(lp70
g0
(cstrictdoc.backend.sdoc.models.grammar_element
GrammarElementFieldString
p71
g2
Ntp72
Rp73
(dp74
g7
VUID
p75
sVhuman_title
p76
NsVgef_type
p77
VString
p78
sVrequired
p79
I00
sg6
g0
(cstrictdoc.helpers.mid
MID
p80
c__builtin__
unicode
p81
Vc8ee042c92674ed6b3c3a273e07269c5
p82
tp83
Rp84
sg14
Nsbag0
(g71
g2
Ntp85
Rp86
(dp87
g7
VLEVEL
p88
sg76
Nsg77
g78
sg79
I00
sg6
g0
(g80
g81
V0f039c613c3947dcb1f6a84918356160
p89
tp90
Rp91
sg14
Nsbag0
(g71
g2
Ntp92
Rp93
(dp94
g7
VPREFIX
p95
sg76
Nsg77
g78
sg79
I00
sg6
g0
(g80
g81
V96e4d0f7164c40818342e4c6ad53d4b1
p96
tp97
Rp98
sg14
Nsbag0
(g71
g2
Ntp99
Rp100
(dp101
g7
VTITLE
p102
sg76
Nsg77
g78
sg79
I01
sg6
g0
(g80
g81
V38c75bb8fe804d929ed611ee642db4cd
p103
tp104
Rp105
sg14
NsbasVrelations
p106
(lp107
sVfields_map
p108
ccollections
OrderedDict
p109
(tRp110
g75
g73
sg88
g86
sg95
g93
sg102
g100
ssVfield_titles
p111
(lp112
g75
ag88
ag95
ag102
asVcontent_field
p113
(V
p114
I-1
tp115
sV_multiline_field_index
p116
I4
sg6
g0
(g80
g81
V71377c4f15e74d4dabf57c91a939e583
p117
tp118
Rp119
sg31
Nsg32
Nsbag0
(g59
g2
Ntp120
Rp121
(dp122
g14
g55
sg63
VTEXT
p123
sg65
Nsg66
Nsg67
Nsg68
Nsg69
(lp124
g0
(g71
g2
Ntp125
Rp126
(dp127
g7
g75
sg76
Nsg77
g78
sg79
I00
sg6
g0
(g80
g81
Vece1e3e1dd824d2baa2b6276688114b4
p128
tp129
Rp130
sg14
Nsbag0
(g71
g2
Ntp131
Rp132
(dp133
g7
VSTATEMENT
p134
sg76
Nsg77
g78
sg79
I01
sg6
g0
(g80
g81
V8de8704d903e4d2eb5bc517f34117015
p135
tp136
Rp137
sg14
Nsbasg106
(lp138
sg108
g109
(tRp139
g75
g126
sg134
g132
ssg111
(lp140
g75
ag134
asg113
(g134
I1
tp141
sg116
I1
sg6
g0
(g80
g81
V2af77ad7d9a4445e97670d325a6bf324
p142
tp143
Rp144
sg31
Nsg32
Nsbag0
(g59
g2
Ntp145
Rp146
(dp147
g14
g55
sg63
VREQUIREMENT
p148
sg65
Nsg66
Nsg67
Nsg68
Nsg69
(lp149
g0
(g71
g2
Ntp150
Rp151
(dp152
g7
g75
sg76
Nsg77
g78
sg79
I00
sg6
g0
(g80
g81
V0689404691344f47a428c10130d2b845
p153
tp154
Rp155
sg14
Nsbag0
(g71
g2
Ntp156
Rp157
(dp158
g7
g88
sg76
Nsg77
g78
sg79
I00
sg6
g0
(g80
g81
Vb64a962623314f5191b94832c3439392
p159
tp160
Rp161
sg14
Nsbag0
(g71
g2
Ntp162
Rp163
(dp164
g7
VSTATUS
p165
sg76
Nsg77
g78
sg79
I00
sg6
g0
(g80
g81
Va81ae977757e4f5aae89fb0fdfc52328
p166
tp167
Rp168
sg14
Nsbag0
(g71
g2
Ntp169
Rp170
(dp171
g7
VTAGS
p172
sg76
Nsg77
g78
sg79
I00
sg6
g0
(g80
g81
V7d6c1fecb4c3435f80922cb76f583640
p173
tp174
Rp175
sg14
Nsbag0
(g71
g2
Ntp176
Rp177
(dp178
g7
g102
sg76
Nsg77
g78
sg79
I00
sg6
g0
(g80
g81
V4b7ef64b0d984861be3815af8f3223ef
p179
tp180
Rp181
sg14
Nsbag0
(g71
g2
Ntp182
Rp183
(dp184
g7
g134
sg76
Nsg77
g78
sg79
I00
sg6
g0
(g80
g81
Vecda10df518c479b83d8ffafcb59f709
p185
tp186
Rp187
sg14
Nsbag0
(g71
g2
Ntp188
Rp189
(dp190
g7
VRATIONALE
p191
sg76
Nsg77
g78
sg79
I00
sg6
g0
(g80
g81
Vd4187d9db05048f99e172e3adfdaa980
p192
tp193
Rp194
sg14
Nsbag0
(g71
g2
Ntp195
Rp196
(dp197
g7
VCOMMENT
p198
sg76
Nsg77
g78
sg79
I00
sg6
g0
(g80
g81
V4271d3b1949948a58b6db65dfe2af2d4
p199
tp200
Rp201
sg14
Nsbasg106
(lp202
g0
(cstrictdoc.backend.sdoc.models.grammar_element
GrammarElementRelationParent
p203
g2
Ntp204
Rp205
(dp206
g14
g146
sVrelation_type
p207
VParent
p208
sVrelation_role
p209
Nsg6
g0
(g80
g81
Ve5d8a4a11a764b179bea198855d18809
p210
tp211
Rp212
sbag0
(cstrictdoc.backend.sdoc.models.grammar_element
GrammarElementRelationFile
p213
g2
Ntp214
Rp215
(dp216
g14
g146
sg207
VFile
p217
sg209
Nsg6
g0
(g80
g81
Vadc3b588b3164021870c55a29bd1d74f
p218
tp219
Rp220
sbasg108
g109
(tRp221
g75
g151
sg88
g157
sg165
g163
sg172
g170
sg102
g177
sg134
g183
sg191
g189
sg198
g196
ssg111
(lp222
g75
ag88
ag165
ag172
ag102
ag134
ag191
ag198
asg113
(g134
I5
tp223
sg116
I5
sg6
g0
(g80
g81
Vede15ac0934240fbace39e6ab5cdcbc9
p224
tp225
Rp226
sg31
Nsg32
NsbasVregistered_elements
p227
c__builtin__
set
p228
((lp229
g148
ag64
ag123
atp230
Rp231
sVelements_by_type
p232
(dp233
g64
g61
sg123
g121
sg148
g146
ssVimport_from_file
p234
NsVis_default
p235
I01
sg31
Nsg32
NsbsVsection_contents
p236
(lp237
g0
(cstrictdoc.backend.sdoc.models.node
SDocCompositeNode
p238
g2
Ntp239
Rp240
(dp241
Vnode_type
p242
VSECTION
p243
sg69
(lp244
g0
(cstrictdoc.backend.sdoc.models.node
SDocNodeField
p245
g2
Ntp246
Rp247
(dp248
Vfield_name
p249
VTITLE
p250
sVparts
p251
(lp252
VFunctional Requirements
p253
asVmultiline__
p254
g114
sV_tx_position
p255
I74
sV_tx_position_end
p256
I105
sg14
g240
sVmultiline
p257
I00
sbasg106
(lp258
sg236
(lp259
g0
(cstrictdoc.backend.sdoc.models.node
SDocNode
p260
g2
Ntp261
Rp262
(dp263
g242
VREQUIREMENT
p264
sg69
(lp265
g0
(g245
g2
Ntp266
Rp267
(dp268
g249
VUID
p269
sg251
(lp270
VREQ-1
p271
asg254
g114
sg255
I120
sg256
I131
sg14
g262
sg257
I00
sbag0
(g245
g2
Ntp272
Rp273
(dp274
g249
VTITLE
p275
sg251
(lp276
VResumable
p277
asg254
g114
sg255
I131
sg256
I148
sg14
g262
sg257
I00
sbag0
(g245
g2
Ntp278
Rp279
(dp280
g249
VSTATEMENT
p281
sg251
(lp282
VThe interpreter shall be resumable\u000a
p283
asg254
V>>>\u000a
p284
sg255
I148
sg256
I202
sg14
g262
sg257
I01
sbag0
(g245
g2
Ntp285
Rp286
(dp287
g249
VRATIONALE
p288
sg251
(lp289
VOperation with fuel or other implementations of bounded run-time requires that the interpreter can be halted.\u000aConversely, later on the interpreter may be resumed, as if it was not halted in the first place.\u000a
p290
asg254
V>>>\u000a
p291
sg255
I202
sg256
I428
sg14
g262
sg257
I01
sbasg106
(lp292
sg255
I106
sg256
I428
sg14
g240
sVis_composite
p293
I00
sg236
(lp294
sVhas_meta
p295
I01
sVfields_as_parsed
p296
g265
sVordered_fields_lookup
p297
g109
(tRp298
g269
(lp299
g267
asg275
(lp300
g273
asg281
(lp301
g279
asg288
(lp302
g286
assVng_level
p303
NsVng_document_reference
p304
g0
(cstrictdoc.backend.sdoc.document_reference
DocumentReference
p305
g2
Ntp306
Rp307
(dp308
V_document
p309
g4
sbsVng_including_document_reference
p310
g0
(g305
g2
Ntp311
Rp312
(dp313
g309
Nsbsg31
I7
sVng_line_end
p314
I17
sg32
I1
sVng_col_end
p315
I1
sVng_byte_start
p316
I106
sVng_byte_end
p317
I428
sVcontext
p318
g0
(cstrictdoc.backend.sdoc.models.node
SDocNodeContext
p319
g2
Ntp320
Rp321
(dp322
Vtitle_number_string
p323
NsbsVreserved_mid
p324
g0
(g80
g81
V45650b33f6c143fd8c31f15bf04fd43e
p325
tp326
Rp327
sVmid_permanent
p328
I00
sVng_resolved_custom_level
p329
NsVcustom_level
p330
NsVng_whitelisted
p331
I01
sVng_has_requirements
p332
I00
sbag0
(g260
g2
Ntp333
Rp334
(dp335
g242
VREQUIREMENT
p336
sg69
(lp337
g0
(g245
g2
Ntp338
Rp339
(dp340
g249
g269
sg251
(lp341
VREQ-3
p342
asg254
g114
sg255
I443
sg256
I454
sg14
g334
sg257
I00
sbag0
(g245
g2
Ntp343
Rp344
(dp345
g249
VTITLE
p346
sg251
(lp347
VBaremetal
p348
asg254
g114
sg255
I454
sg256
I471
sg14
g334
sg257
I00
sbag0
(g245
g2
Ntp349
Rp350
(dp351
g249
VSTATEMENT
p352
sg251
(lp353
VThe interpreter shall be executable on bare-metal environments\u000a
p354
asg254
V>>>\u000a
p355
sg255
I471
sg256
I553
sg14
g334
sg257
I01
sbag0
(g245
g2
Ntp356
Rp357
(dp358
g249
VRATIONALE
p359
sg251
(lp360
VNo reliance on any specific functionality from the provided execution environment is acceptable, as the interpreter shall be ready for embedding to any environment that Rust can compile for.\u000a
p361
asg254
V>>>\u000a
p362
sg255
I553
sg256
I763
sg14
g334
sg257
I01
sbasg106
(lp363
sg255
I429
sg256
I763
sg14
g240
sg293
I00
sg236
(lp364
sg295
I01
sg296
g337
sg297
g109
(tRp365
g269
(lp366
g339
asg346
(lp367
g344
asg352
(lp368
g350
asg359
(lp369
g357
assg303
Nsg304
g307
sg310
g312
sg31
I18
sg314
I27
sg32
I1
sg315
I1
sg316
I429
sg317
I763
sg318
g0
(g319
g2
Ntp370
Rp371
(dp372
g323
Nsbsg324
g0
(g80
g81
V96d77d4d15f0484eb0561c6f9b577eb7
p373
tp374
Rp375
sg328
I00
sg329
Nsg330
Nsg331
I01
sg332
I00
sbag0
(g260
g2
Ntp376
Rp377
(dp378
g242
VREQUIREMENT
p379
sg69
(lp380
g0
(g245
g2
Ntp381
Rp382
(dp383
g249
g269
sg251
(lp384
VREQ-5
p385
asg254
g114
sg255
I778
sg256
I789
sg14
g377
sg257
I00
sbag0
(g245
g2
Ntp386
Rp387
(dp388
g249
VTITLE
p389
sg251
(lp390
VBounded execution
p391
asg254
g114
sg255
I789
sg256
I814
sg14
g377
sg257
I00
sbag0
(g245
g2
Ntp392
Rp393
(dp394
g249
VSTATEMENT
p395
sg251
(lp396
VThe interpreter shall yield back control flow eventually\u000a
p397
asg254
V>>>\u000a
p398
sg255
I814
sg256
I890
sg14
g377
sg257
I01
sbag0
(g245
g2
Ntp399
Rp400
(dp401
g249
VRATIONALE
p402
sg251
(lp403
VA user shall be able to call the interpreter with a bound, expecting a result in a finite amount of time or bytecode operations. Even if the bytecode itself does never finish execution (i.e. due to a infinite loop), the interpreter shall yield eventually, by pausing the bytecode execution.\u000a
p404
asg254
V>>>\u000a
p405
sg255
I890
sg256
I1200
sg14
g377
sg257
I01
sbag0
(g245
g2
Ntp406
Rp407
(dp408
g249
VCOMMENT
p409
sg251
(lp410
VIt is not acceptable to constraint the interpreter to only those bytecode instances for which the halting-problem is solvable.\u000a
p411
asg254
V>>>\u000a
p412
sg255
I1200
sg256
I1344
sg14
g377
sg257
I01
sbasg106
(lp413
sg255
I764
sg256
I1344
sg14
g240
sg293
I00
sg236
(lp414
sg295
I01
sg296
g380
sg297
g109
(tRp415
g269
(lp416
g382
asg389
(lp417
g387
asg395
(lp418
g393
asg402
(lp419
g400
asg409
(lp420
g407
assg303
Nsg304
g307
sg310
g312
sg31
I28
sg314
I40
sg32
I1
sg315
I1
sg316
I764
sg317
I1344
sg318
g0
(g319
g2
Ntp421
Rp422
(dp423
g323
Nsbsg324
g0
(g80
g81
V2369bb1d0abf462d8e5490b875f44f77
p424
tp425
Rp426
sg328
I00
sg329
Nsg330
Nsg331
I01
sg332
I00
sbag0
(g260
g2
Ntp427
Rp428
(dp429
g242
VREQUIREMENT
p430
sg69
(lp431
g0
(g245
g2
Ntp432
Rp433
(dp434
g249
g269
sg251
(lp435
VREQ-12
p436
asg254
g114
sg255
I1359
sg256
I1371
sg14
g428
sg257
I00
sbag0
(g245
g2
Ntp437
Rp438
(dp439
g249
VTITLE
p440
sg251
(lp441
VMigrateable
p442
asg254
g114
sg255
I1371
sg256
I1390
sg14
g428
sg257
I00
sbag0
(g245
g2
Ntp443
Rp444
(dp445
g249
VSTATEMENT
p446
sg251
(lp447
VThe interpreter state shall be able to halt on one computer and continue execution on another\u000a
p448
asg254
V>>>\u000a
p449
sg255
I1390
sg256
I1503
sg14
g428
sg257
I01
sbag0
(g245
g2
Ntp450
Rp451
(dp452
g249
VRATIONALE
p453
sg251
(lp454
VThis enables various workflows in deployments of multiple computers. For load-balancing or redundancy purposes, running applications can be migrated to other computers without disruption.\u000a
p455
asg254
V>>>\u000a
p456
sg255
I1503
sg256
I1710
sg14
g428
sg257
I01
sbasg106
(lp457
sg255
I1345
sg256
I1710
sg14
g240
sg293
I00
sg236
(lp458
sg295
I01
sg296
g431
sg297
g109
(tRp459
g269
(lp460
g433
asg440
(lp461
g438
asg446
(lp462
g444
asg453
(lp463
g451
assg303
Nsg304
g307
sg310
g312
sg31
I41
sg314
I50
sg32
I1
sg315
I1
sg316
I1345
sg317
I1710
sg318
g0
(g319
g2
Ntp464
Rp465
(dp466
g323
Nsbsg324
g0
(g80
g81
Vfe6655818943477ab5dbd84812328c8a
p467
tp468
Rp469
sg328
I00
sg329
Nsg330
Nsg331
I01
sg332
I00
sbag0
(g260
g2
Ntp470
Rp471
(dp472
g242
VREQUIREMENT
p473
sg69
(lp474
g0
(g245
g2
Ntp475
Rp476
(dp477
g249
g269
sg251
(lp478
VREQ-14
p479
asg254
g114
sg255
I1725
sg256
I1737
sg14
g471
sg257
I00
sbag0
(g245
g2
Ntp480
Rp481
(dp482
g249
VTITLE
p483
sg251
(lp484
VNo Dependencies
p485
asg254
g114
sg255
I1737
sg256
I1760
sg14
g471
sg257
I00
sbag0
(g245
g2
Ntp486
Rp487
(dp488
g249
VSTATEMENT
p489
sg251
(lp490
VNo dependencies but those explicitly allowed by a requirement shall be used\u000a
p491
asg254
V>>>\u000a
p492
sg255
I1760
sg256
I1855
sg14
g471
sg257
I01
sbag0
(g245
g2
Ntp493
Rp494
(dp495
g249
VRATIONALE
p496
sg251
(lp497
VDependencies have to forego the full V&V process as well, which quickly adds enormous work.\u000a
p498
asg254
V>>>\u000a
p499
sg255
I1855
sg256
I1966
sg14
g471
sg257
I01
sbag0
(g245
g2
Ntp500
Rp501
(dp502
g249
VCOMMENT
p503
sg251
(lp504
VThis requirement constraints the usage and introduction of normal dependencies, but not Dev Dependencies [#]_ and not Build Dependencies [#]_ .\u000a\u000a.. [#] https://doc.rust-lang.org/cargo/reference/specifying-dependencies.html#development-dependencies\u000a.. [#] https://doc.rust-lang.org/cargo/reference/specifying-dependencies.html#build-dependencies\u000a
p505
asg254
V>>>\u000a
p506
sg255
I1966
sg256
I2328
sg14
g471
sg257
I01
sbag0
(g245
g2
Ntp507
Rp508
(dp509
g249
VCOMMENT
p510
sg251
(lp511
VExceptions to this, i.e. allowed dependencies, must refer to this requirement as their parent.\u000a
p512
asg254
V>>>\u000a
p513
sg255
I2328
sg256
I2440
sg14
g471
sg257
I01
sbag0
(g245
g2
Ntp514
Rp515
(dp516
g249
VCOMMENT
p517
sg251
(lp518
VAll requirements that allow a dependency must specify the exact version of the dependency (at least major, minor and patch release)\u000a
p519
asg254
V>>>\u000a
p520
sg255
I2440
sg256
I2589
sg14
g471
sg257
I01
sbasg106
(lp521
sg255
I1711
sg256
I2589
sg14
g240
sg293
I00
sg236
(lp522
sg295
I01
sg296
g474
sg297
g109
(tRp523
g269
(lp524
g476
asg483
(lp525
g481
asg489
(lp526
g487
asg496
(lp527
g494
asg503
(lp528
g501
ag508
ag515
assg303
Nsg304
g307
sg310
g312
sg31
I51
sg314
I72
sg32
I1
sg315
I1
sg316
I1711
sg317
I2589
sg318
g0
(g319
g2
Ntp529
Rp530
(dp531
g323
Nsbsg324
g0
(g80
g81
Vff153f45632744468c1be7516009e25d
p532
tp533
Rp534
sg328
I00
sg329
Nsg330
Nsg331
I01
sg332
I00
sbag0
(g238
g2
Ntp535
Rp536
(dp537
g242
VSECTION
p538
sg69
(lp539
g0
(g245
g2
Ntp540
Rp541
(dp542
g249
VTITLE
p543
sg251
(lp544
VLow-Level Functional Requirements
p545
asg254
g114
sg255
I2602
sg256
I2643
sg14
g536
sg257
I00
sbasg106
(lp546
sg236
(lp547
g0
(g260
g2
Ntp548
Rp549
(dp550
g242
VREQUIREMENT
p551
sg69
(lp552
g0
(g245
g2
Ntp553
Rp554
(dp555
g249
g269
sg251
(lp556
VREQ-2
p557
asg254
g114
sg255
I2658
sg256
I2669
sg14
g549
sg257
I00
sbag0
(g245
g2
Ntp558
Rp559
(dp560
g249
VTITLE
p561
sg251
(lp562
VStackless
p563
asg254
g114
sg255
I2669
sg256
I2686
sg14
g549
sg257
I00
sbag0
(g245
g2
Ntp564
Rp565
(dp566
g249
VSTATEMENT
p567
sg251
(lp568
VThe interpreter shall be stackless\u000a
p569
asg254
V>>>\u000a
p570
sg255
I2686
sg256
I2740
sg14
g549
sg257
I01
sbag0
(g245
g2
Ntp571
Rp572
(dp573
g249
VRATIONALE
p574
sg251
(lp575
VA stackless interpreter is one that does not use function calls in the host environment to implement function calls inside the interpreter. Instead, the stack of the interpreted bytecode is stored in a traditional data structure (such as a Vec<u8>). Interpretation can be interrupted between any two virtual instructions of the bytecode, and crucially so resumed from there.\u000a\u000aFurther information: https://kyju.org/blog/piccolo-a-stackless-lua-interpreter/#a-stackless-interpreter-design\u000a
p576
asg254
V>>>\u000a
p577
sg255
I2740
sg256
I3246
sg14
g549
sg257
I01
sbasg106
(lp578
g0
(cstrictdoc.backend.sdoc.models.reference
ParentReqReference
p579
g2
Ntp580
Rp581
(dp582
Vref_uid
p583
VREQ-1
p584
sVrole
p585
Nsg255
I3257
sg256
I3287
sg14
g549
sVref_type
p586
g208
sg6
g0
(g80
g81
V9019fcee5b424e2f8d328f8d5e5c5251
p587
tp588
Rp589
sbasg255
I2644
sg256
I3287
sg14
g536
sg293
I00
sg236
(lp590
sg295
I01
sg296
g552
sg297
g109
(tRp591
g269
(lp592
g554
asg561
(lp593
g559
asg567
(lp594
g565
asg574
(lp595
g572
assg303
Nsg304
g307
sg310
g312
sg31
I76
sg314
I90
sg32
I1
sg315
I1
sg316
I2644
sg317
I3287
sg318
g0
(g319
g2
Ntp596
Rp597
(dp598
g323
Nsbsg324
g0
(g80
g81
Ve230981d65f949ad88dd971dba002ec9
p599
tp600
Rp601
sg328
I00
sg329
Nsg330
Nsg331
I01
sg332
I00
sbag0
(g260
g2
Ntp602
Rp603
(dp604
g242
VREQUIREMENT
p605
sg69
(lp606
g0
(g245
g2
Ntp607
Rp608
(dp609
g249
g269
sg251
(lp610
VREQ-4
p611
asg254
g114
sg255
I3302
sg256
I3313
sg14
g603
sg257
I00
sbag0
(g245
g2
Ntp612
Rp613
(dp614
g249
VTITLE
p615
sg251
(lp616
Vno_std
p617
asg254
g114
sg255
I3313
sg256
I3327
sg14
g603
sg257
I00
sbag0
(g245
g2
Ntp618
Rp619
(dp620
g249
VSTATEMENT
p621
sg251
(lp622
VThe interpreter shall be implemented in no_std Rust\u000a
p623
asg254
V>>>\u000a
p624
sg255
I3327
sg256
I3398
sg14
g603
sg257
I01
sbag0
(g245
g2
Ntp625
Rp626
(dp627
g249
VRATIONALE
p628
sg251
(lp629
VOnly relying on the functionality that is provided by no_std enables execution on bare environments where operating system is available.\u000a
p630
asg254
V>>>\u000a
p631
sg255
I3398
sg256
I3554
sg14
g603
sg257
I01
sbag0
(g245
g2
Ntp632
Rp633
(dp634
g249
VCOMMENT
p635
sg251
(lp636
VReliance on alloc is allowable, as an allocator can be implemented without further reliance on the execution environment.\u000a
p637
asg254
V>>>\u000a
p638
sg255
I3554
sg256
I3693
sg14
g603
sg257
I01
sbasg106
(lp639
g0
(g579
g2
Ntp640
Rp641
(dp642
g583
VREQ-3
p643
sg585
Nsg255
I3704
sg256
I3734
sg14
g603
sg586
g208
sg6
g0
(g80
g81
V3042d04b9fdf40f2989c6b8aafff01fd
p644
tp645
Rp646
sbasg255
I3288
sg256
I3734
sg14
g536
sg293
I00
sg236
(lp647
sg295
I01
sg296
g606
sg297
g109
(tRp648
g269
(lp649
g608
asg615
(lp650
g613
asg621
(lp651
g619
asg628
(lp652
g626
asg635
(lp653
g633
assg303
Nsg304
g307
sg310
g312
sg31
I91
sg314
I106
sg32
I1
sg315
I1
sg316
I3288
sg317
I3734
sg318
g0
(g319
g2
Ntp654
Rp655
(dp656
g323
Nsbsg324
g0
(g80
g81
V24d8e90012884cd39242ea0cd2f852cf
p657
tp658
Rp659
sg328
I00
sg329
Nsg330
Nsg331
I01
sg332
I00
sbag0
(g260
g2
Ntp660
Rp661
(dp662
g242
VREQUIREMENT
p663
sg69
(lp664
g0
(g245
g2
Ntp665
Rp666
(dp667
g249
g269
sg251
(lp668
VREQ-6
p669
asg254
g114
sg255
I3749
sg256
I3760
sg14
g661
sg257
I00
sbag0
(g245
g2
Ntp670
Rp671
(dp672
g249
VTITLE
p673
sg251
(lp674
VFuel
p675
asg254
g114
sg255
I3760
sg256
I3772
sg14
g661
sg257
I00
sbag0
(g245
g2
Ntp676
Rp677
(dp678
g249
VSTATEMENT
p679
sg251
(lp680
VThe interpreter shall support fuel bounded execution\u000a
p681
asg254
V>>>\u000a
p682
sg255
I3772
sg256
I3844
sg14
g661
sg257
I01
sbag0
(g245
g2
Ntp683
Rp684
(dp685
g249
VRATIONALE
p686
sg251
(lp687
VFuel is a mechanism to limit the amount of bytecode operations conducted when calling the interpreter. Each bytecode instruction is associated with a specific amount of fuel consumed when executing it. The interpreter is provided a finite amount of fuel, that is deplete during execution, until the amount of fuel is insufficient to conduct further bytecode operations. At this point, the interpreter yields back the control flow. Later on, the execution may be resumed.\u000a\u000aFurther information: https://docs.rs/wasmtime/latest/wasmtime/struct.Config.html#method.consume_fuel\u000a
p688
asg254
V>>>\u000a
p689
sg255
I3844
sg256
I4436
sg14
g661
sg257
I01
sbasg106
(lp690
g0
(g579
g2
Ntp691
Rp692
(dp693
g583
VREQ-5
p694
sg585
Nsg255
I4447
sg256
I4477
sg14
g661
sg586
g208
sg6
g0
(g80
g81
Vd45731fc447b4fa2b6a0ef808929dc9b
p695
tp696
Rp697
sbasg255
I3735
sg256
I4477
sg14
g536
sg293
I00
sg236
(lp698
sg295
I01
sg296
g664
sg297
g109
(tRp699
g269
(lp700
g666
asg673
(lp701
g671
asg679
(lp702
g677
asg686
(lp703
g684
assg303
Nsg304
g307
sg310
g312
sg31
I107
sg314
I121
sg32
I1
sg315
I1
sg316
I3735
sg317
I4477
sg318
g0
(g319
g2
Ntp704
Rp705
(dp706
g323
Nsbsg324
g0
(g80
g81
V3e71d602cf964207884bb707b1ab518d
p707
tp708
Rp709
sg328
I00
sg329
Nsg330
Nsg331
I01
sg332
I00
sbag0
(g260
g2
Ntp710
Rp711
(dp712
g242
VREQUIREMENT
p713
sg69
(lp714
g0
(g245
g2
Ntp715
Rp716
(dp717
g249
g269
sg251
(lp718
VREQ-13
p719
asg254
g114
sg255
I4492
sg256
I4504
sg14
g711
sg257
I00
sbag0
(g245
g2
Ntp720
Rp721
(dp722
g249
VTITLE
p723
sg251
(lp724
VDe-/Serializable
p725
asg254
g114
sg255
I4504
sg256
I4528
sg14
g711
sg257
I00
sbag0
(g245
g2
Ntp726
Rp727
(dp728
g249
VSTATEMENT
p729
sg251
(lp730
VThe interpreter state shall be de-/serializable\u000a
p731
asg254
V>>>\u000a
p732
sg255
I4528
sg256
I4595
sg14
g711
sg257
I01
sbag0
(g245
g2
Ntp733
Rp734
(dp735
g249
VRATIONALE
p736
sg251
(lp737
VIf the interpreter state can be serialized to and deserialized from a canonical representation, migration to other computers as well as check-point/lock-step like execution become simple to implement.\u000a
p738
asg254
V>>>\u000a
p739
sg255
I4595
sg256
I4815
sg14
g711
sg257
I01
sbasg106
(lp740
g0
(g579
g2
Ntp741
Rp742
(dp743
g583
VREQ-12
p744
sg585
Nsg255
I4826
sg256
I4857
sg14
g711
sg586
g208
sg6
g0
(g80
g81
V120aa142ef9a4048a7d7faae1e4687e0
p745
tp746
Rp747
sbasg255
I4478
sg256
I4857
sg14
g536
sg293
I00
sg236
(lp748
sg295
I01
sg296
g714
sg297
g109
(tRp749
g269
(lp750
g716
asg723
(lp751
g721
asg729
(lp752
g727
asg736
(lp753
g734
assg303
Nsg304
g307
sg310
g312
sg31
I122
sg314
I134
sg32
I1
sg315
I1
sg316
I4478
sg317
I4857
sg318
g0
(g319
g2
Ntp754
Rp755
(dp756
g323
Nsbsg324
g0
(g80
g81
Vf94424bd1f39466d8bab797a9a50e753
p757
tp758
Rp759
sg328
I00
sg329
Nsg330
Nsg331
I01
sg332
I00
sbag0
(g260
g2
Ntp760
Rp761
(dp762
g242
VREQUIREMENT
p763
sg69
(lp764
g0
(g245
g2
Ntp765
Rp766
(dp767
g249
g269
sg251
(lp768
VREQ-15
p769
asg254
g114
sg255
I4872
sg256
I4884
sg14
g761
sg257
I00
sbag0
(g245
g2
Ntp770
Rp771
(dp772
g249
VTITLE
p773
sg251
(lp774
VAllow log dependency
p775
asg254
g114
sg255
I4884
sg256
I4912
sg14
g761
sg257
I00
sbag0
(g245
g2
Ntp776
Rp777
(dp778
g249
VSTATEMENT
p779
sg251
(lp780
VThe interpreter shall have an optional dependency on the ``log`` version ``0.4.22`` or later.\u000a
p781
asg254
V>>>\u000a
p782
sg255
I4912
sg256
I5025
sg14
g761
sg257
I01
sbag0
(g245
g2
Ntp783
Rp784
(dp785
g249
VRATIONALE
p786
sg251
(lp787
VLogging is an essential tool to make a system observable, and aid in debugging. Bespoke crate is widely used in the Rust ecosystem and can be attached to any (or no) logging backend. Using conditional compilation, all of the ``log`` crate's footprint in the WASM interpreter (foremost the ``debug``, ``error``, ``info``, ``trace`` and ``warn`` macro) can be expanded to empty statements to avoid **any** run-time impact when opting out of the dependency on ``log``.\u000a
p788
asg254
V>>>\u000a
p789
sg255
I5025
sg256
I5510
sg14
g761
sg257
I01
sbasg106
(lp790
g0
(g579
g2
Ntp791
Rp792
(dp793
g583
VREQ-14
p794
sg585
Nsg255
I5521
sg256
I5552
sg14
g761
sg586
g208
sg6
g0
(g80
g81
V4bd4295fd12c477a98e5eae9423c6b99
p795
tp796
Rp797
sbasg255
I4858
sg256
I5552
sg14
g536
sg293
I00
sg236
(lp798
sg295
I01
sg296
g764
sg297
g109
(tRp799
g269
(lp800
g766
asg773
(lp801
g771
asg779
(lp802
g777
asg786
(lp803
g784
assg303
Nsg304
g307
sg310
g312
sg31
I135
sg314
I147
sg32
I1
sg315
I1
sg316
I4858
sg317
I5552
sg318
g0
(g319
g2
Ntp804
Rp805
(dp806
g323
Nsbsg324
g0
(g80
g81
V96d5e4f497f247b3a80b6b321c426df6
p807
tp808
Rp809
sg328
I00
sg329
Nsg330
Nsg331
I01
sg332
I00
sbag0
(g260
g2
Ntp810
Rp811
(dp812
g242
VREQUIREMENT
p813
sg69
(lp814
g0
(g245
g2
Ntp815
Rp816
(dp817
g249
g269
sg251
(lp818
VREQ-16
p819
asg254
g114
sg255
I5567
sg256
I5579
sg14
g811
sg257
I00
sbag0
(g245
g2
Ntp820
Rp821
(dp822
g249
VTITLE
p823
sg251
(lp824
VAllow libm dependency
p825
asg254
g114
sg255
I5579
sg256
I5608
sg14
g811
sg257
I00
sbag0
(g245
g2
Ntp826
Rp827
(dp828
g249
VSTATEMENT
p829
sg251
(lp830
VThe interpreter may depend on the ``libm`` crate version ``0.2.8``\u000a
p831
asg254
V>>>\u000a
p832
sg255
I5608
sg256
I5694
sg14
g811
sg257
I01
sbag0
(g245
g2
Ntp833
Rp834
(dp835
g249
VRATIONALE
p836
sg251
(lp837
VRust does not expose all floating point operations in a bare-metal (as in ``no_std``) target, as to not introduce any dependency on the C standard library's ``libm`` (respective PR: https://github.com/rust-lang/rust/pull/27823). However, we identified at least the following operations to be required for WASM interpretation while unavailable in ``no_std``:\u000a\u000a- ``abs``\u000a- ``ceil``\u000a- ``floor``\u000a- ``trunc``\u000a- ``round``\u000a- ``sqrt``\u000a- ``copysign``\u000a\u000aIn order use these operations, having the ``libm`` crate as dependencies of the WASM interpreter is an acceptable trade-off.\u000a
p838
asg254
V>>>\u000a
p839
sg255
I5694
sg256
I6281
sg14
g811
sg257
I01
sbasg106
(lp840
g0
(g579
g2
Ntp841
Rp842
(dp843
g583
VREQ-14
p844
sg585
Nsg255
I6292
sg256
I6323
sg14
g811
sg586
g208
sg6
g0
(g80
g81
V5abff86cceb74830a801bcab586e6501
p845
tp846
Rp847
sbasg255
I5553
sg256
I6323
sg14
g536
sg293
I00
sg236
(lp848
sg295
I01
sg296
g814
sg297
g109
(tRp849
g269
(lp850
g816
asg823
(lp851
g821
asg829
(lp852
g827
asg836
(lp853
g834
assg303
Nsg304
g307
sg310
g312
sg31
I148
sg314
I170
sg32
I1
sg315
I1
sg316
I5553
sg317
I6323
sg318
g0
(g319
g2
Ntp854
Rp855
(dp856
g323
Nsbsg324
g0
(g80
g81
V8d2cace28939429dafada8e14d6db7b1
p857
tp858
Rp859
sg328
I00
sg329
Nsg330
Nsg331
I01
sg332
I00
sbag0
(g260
g2
Ntp860
Rp861
(dp862
g242
VREQUIREMENT
p863
sg69
(lp864
g0
(g245
g2
Ntp865
Rp866
(dp867
g249
g269
sg251
(lp868
VREQ-17
p869
asg254
g114
sg255
I6338
sg256
I6350
sg14
g861
sg257
I00
sbag0
(g245
g2
Ntp870
Rp871
(dp872
g249
VTITLE
p873
sg251
(lp874
VMinimum Supported Rust Version (MSRV)
p875
asg254
g114
sg255
I6350
sg256
I6395
sg14
g861
sg257
I00
sbag0
(g245
g2
Ntp876
Rp877
(dp878
g249
VSTATEMENT
p879
sg251
(lp880
VThe interpreter shall compile on Rust ``1.81.0`` and later versions\u000a
p881
asg254
V>>>\u000a
p882
sg255
I6395
sg256
I6482
sg14
g861
sg257
I01
sbag0
(g245
g2
Ntp883
Rp884
(dp885
g249
VRATIONALE
p886
sg251
(lp887
VAn MSRV should be clearly stated to specify which toolchain is acceptable.\u000a
p888
asg254
V>>>\u000a
p889
sg255
I6482
sg256
I6576
sg14
g861
sg257
I01
sbasg106
(lp890
sg255
I6324
sg256
I6576
sg14
g536
sg293
I00
sg236
(lp891
sg295
I01
sg296
g864
sg297
g109
(tRp892
g269
(lp893
g866
asg873
(lp894
g871
asg879
(lp895
g877
asg886
(lp896
g884
assg303
Nsg304
g307
sg310
g312
sg31
I171
sg314
I180
sg32
I1
sg315
I1
sg316
I6324
sg317
I6576
sg318
g0
(g319
g2
Ntp897
Rp898
(dp899
g323
Nsbsg324
g0
(g80
g81
V00c49ddb0daf460b8582d79a735e3a9b
p900
tp901
Rp902
sg328
I00
sg329
Nsg330
Nsg331
I01
sg332
I00
sbasVnode_type_close
p903
VSECTION
p904
sg255
I2590
sg256
I6590
sg14
g240
sg293
I01
sg295
I00
sg296
g539
sg297
g109
(tRp905
g543
(lp906
g541
assg303
Nsg304
g307
sg310
g312
sg31
I73
sg314
I182
sg32
I1
sg315
I1
sg316
I2590
sg317
I6590
sg318
g0
(g319
g2
Ntp907
Rp908
(dp909
g323
Nsbsg324
g0
(g80
g81
V483da4456ac64e658889993679b0cfa4
p910
tp911
Rp912
sg328
I00
sg329
Nsg330
Nsg331
I01
sg332
I01
sbasg903
VSECTION
p913
sg255
I62
sg256
I6604
sg14
g4
sg293
I01
sg295
I00
sg296
g244
sg297
g109
(tRp914
g250
(lp915
g247
assg303
Nsg304
g307
sg310
g312
sg31
I4
sg314
I184
sg32
I1
sg315
I1
sg316
I62
sg317
I6604
sg318
g0
(g319
g2
Ntp916
Rp917
(dp918
g323
Nsbsg324
g0
(g80
g81
Vb83ef4c9323942c49a06764948bee94a
p919
tp920
Rp921
sg328
I00
sg329
Nsg330
Nsg331
I01
sg332
I01
sbag0
(g238
g2
Ntp922
Rp923
(dp924
g242
VSECTION
p925
sg69
(lp926
g0
(g245
g2
Ntp927
Rp928
(dp929
g249
VTITLE
p930
sg251
(lp931
VObservability Requirements
p932
asg254
g114
sg255
I6617
sg256
I6651
sg14
g923
sg257
I00
sbasg106
(lp933
sg236
(lp934
g0
(g260
g2
Ntp935
Rp936
(dp937
g242
VREQUIREMENT
p938
sg69
(lp939
g0
(g245
g2
Ntp940
Rp941
(dp942
g249
g269
sg251
(lp943
VREQ-7
p944
asg254
g114
sg255
I6666
sg256
I6677
sg14
g936
sg257
I00
sbag0
(g245
g2
Ntp945
Rp946
(dp947
g249
VTITLE
p948
sg251
(lp949
VInstrumentation
p950
asg254
g114
sg255
I6677
sg256
I6700
sg14
g936
sg257
I00
sbag0
(g245
g2
Ntp951
Rp952
(dp953
g249
VSTATEMENT
p954
sg251
(lp955
VThe interpreter shall implement means for instrumentation\u000a
p956
asg254
V>>>\u000a
p957
sg255
I6700
sg256
I6777
sg14
g936
sg257
I01
sbag0
(g245
g2
Ntp958
Rp959
(dp960
g249
VRATIONALE
p961
sg251
(lp962
VInstrumentation is needed to generate evidence for certification. Instrumentation eases debugging. Instrumentation enables elaborate run-time monitoring.\u000a
p963
asg254
V>>>\u000a
p964
sg255
I6777
sg256
I6950
sg14
g936
sg257
I01
sbasg106
(lp965
sg255
I6652
sg256
I6950
sg14
g923
sg293
I00
sg236
(lp966
sg295
I01
sg296
g939
sg297
g109
(tRp967
g269
(lp968
g941
asg948
(lp969
g946
asg954
(lp970
g952
asg961
(lp971
g959
assg303
Nsg304
g307
sg310
g312
sg31
I188
sg314
I197
sg32
I1
sg315
I1
sg316
I6652
sg317
I6950
sg318
g0
(g319
g2
Ntp972
Rp973
(dp974
g323
Nsbsg324
g0
(g80
g81
Vb55388646b7d487f9140a30f866f2bbc
p975
tp976
Rp977
sg328
I00
sg329
Nsg330
Nsg331
I01
sg332
I00
sbag0
(g238
g2
Ntp978
Rp979
(dp980
g242
VSECTION
p981
sg69
(lp982
g0
(g245
g2
Ntp983
Rp984
(dp985
g249
VTITLE
p986
sg251
(lp987
VLow-Level Observability Requirements
p988
asg254
g114
sg255
I6963
sg256
I7007
sg14
g979
sg257
I00
sbasg106
(lp989
sg236
(lp990
g0
(g260
g2
Ntp991
Rp992
(dp993
g242
VREQUIREMENT
p994
sg69
(lp995
g0
(g245
g2
Ntp996
Rp997
(dp998
g249
g269
sg251
(lp999
VREQ-8
p1000
asg254
g114
sg255
I7022
sg256
I7033
sg14
g992
sg257
I00
sbag0
(g245
g2
Ntp1001
Rp1002
(dp1003
g249
VTITLE
p1004
sg251
(lp1005
VStatement Coverage
p1006
asg254
g114
sg255
I7033
sg256
I7059
sg14
g992
sg257
I00
sbag0
(g245
g2
Ntp1007
Rp1008
(dp1009
g249
VSTATEMENT
p1010
sg251
(lp1011
VThe instrumentation shall enable the measurement of statement coverage\u000a
p1012
asg254
V>>>\u000a
p1013
sg255
I7059
sg256
I7149
sg14
g992
sg257
I01
sbag0
(g245
g2
Ntp1014
Rp1015
(dp1016
g249
VRATIONALE
p1017
sg251
(lp1018
VStatement coverage is required by DO-178C starting at DAL-C (6.4.4.c)\u000a
p1019
asg254
V>>>\u000a
p1020
sg255
I7149
sg256
I7238
sg14
g992
sg257
I01
sbasg106
(lp1021
g0
(g579
g2
Ntp1022
Rp1023
(dp1024
g583
VREQ-7
p1025
sg585
Nsg255
I7249
sg256
I7279
sg14
g992
sg586
g208
sg6
g0
(g80
g81
V220d11804adf4a6ebb6da11e833eae2c
p1026
tp1027
Rp1028
sbag0
(g579
g2
Ntp1029
Rp1030
(dp1031
g583
VREQ-11
p1032
sg585
Nsg255
I7279
sg256
I7310
sg14
g992
sg586
g208
sg6
g0
(g80
g81
V24b480e9e2cb4eafbb7540fa4a124a44
p1033
tp1034
Rp1035
sbasg255
I7008
sg256
I7310
sg14
g979
sg293
I00
sg236
(lp1036
sg295
I01
sg296
g995
sg297
g109
(tRp1037
g269
(lp1038
g997
asg1004
(lp1039
g1002
asg1010
(lp1040
g1008
asg1017
(lp1041
g1015
assg303
Nsg304
g307
sg310
g312
sg31
I201
sg314
I215
sg32
I1
sg315
I1
sg316
I7008
sg317
I7310
sg318
g0
(g319
g2
Ntp1042
Rp1043
(dp1044
g323
Nsbsg324
g0
(g80
g81
V9da5d4efde4a4511bea4f0c10aab9c93
p1045
tp1046
Rp1047
sg328
I00
sg329
Nsg330
Nsg331
I01
sg332
I00
sbag0
(g260
g2
Ntp1048
Rp1049
(dp1050
g242
VREQUIREMENT
p1051
sg69
(lp1052
g0
(g245
g2
Ntp1053
Rp1054
(dp1055
g249
g269
sg251
(lp1056
VREQ-9
p1057
asg254
g114
sg255
I7325
sg256
I7336
sg14
g1049
sg257
I00
sbag0
(g245
g2
Ntp1058
Rp1059
(dp1060
g249
VTITLE
p1061
sg251
(lp1062
VDecision Coverage
p1063
asg254
g114
sg255
I7336
sg256
I7361
sg14
g1049
sg257
I00
sbag0
(g245
g2
Ntp1064
Rp1065
(dp1066
g249
VSTATEMENT
p1067
sg251
(lp1068
VThe instrumentation shall enable the measurement of decision coverage\u000a
p1069
asg254
V>>>\u000a
p1070
sg255
I7361
sg256
I7450
sg14
g1049
sg257
I01
sbag0
(g245
g2
Ntp1071
Rp1072
(dp1073
g249
VRATIONALE
p1074
sg251
(lp1075
VDecision coverage is required by DO-178C starting at DAL-B (6.4.4.c)\u000a
p1076
asg254
V>>>\u000a
p1077
sg255
I7450
sg256
I7538
sg14
g1049
sg257
I01
sbasg106
(lp1078
g0
(g579
g2
Ntp1079
Rp1080
(dp1081
g583
VREQ-7
p1082
sg585
Nsg255
I7549
sg256
I7579
sg14
g1049
sg586
g208
sg6
g0
(g80
g81
V2f65de791927421cb9e2adc11aef7715
p1083
tp1084
Rp1085
sbag0
(g579
g2
Ntp1086
Rp1087
(dp1088
g583
VREQ-11
p1089
sg585
Nsg255
I7579
sg256
I7610
sg14
g1049
sg586
g208
sg6
g0
(g80
g81
Vf0fcd3f11d2e4d8388742e61abe54b92
p1090
tp1091
Rp1092
sbasg255
I7311
sg256
I7610
sg14
g979
sg293
I00
sg236
(lp1093
sg295
I01
sg296
g1052
sg297
g109
(tRp1094
g269
(lp1095
g1054
asg1061
(lp1096
g1059
asg1067
(lp1097
g1065
asg1074
(lp1098
g1072
assg303
Nsg304
g307
sg310
g312
sg31
I216
sg314
I230
sg32
I1
sg315
I1
sg316
I7311
sg317
I7610
sg318
g0
(g319
g2
Ntp1099
Rp1100
(dp1101
g323
Nsbsg324
g0
(g80
g81
V8d9191159a1346d9beb2d2e13d10bfcb
p1102
tp1103
Rp1104
sg328
I00
sg329
Nsg330
Nsg331
I01
sg332
I00
sbag0
(g260
g2
Ntp1105
Rp1106
(dp1107
g242
VREQUIREMENT
p1108
sg69
(lp1109
g0
(g245
g2
Ntp1110
Rp1111
(dp1112
g249
g269
sg251
(lp1113
VREQ-10
p1114
asg254
g114
sg255
I7625
sg256
I7637
sg14
g1106
sg257
I00
sbag0
(g245
g2
Ntp1115
Rp1116
(dp1117
g249
VTITLE
p1118
sg251
(lp1119
VModified Condition/Decision Coverage
p1120
asg254
g114
sg255
I7637
sg256
I7681
sg14
g1106
sg257
I00
sbag0
(g245
g2
Ntp1121
Rp1122
(dp1123
g249
VSTATEMENT
p1124
sg251
(lp1125
VThe instrumentation shall enable the measurement of modified condition/decision coverage\u000a
p1126
asg254
V>>>\u000a
p1127
sg255
I7681
sg256
I7789
sg14
g1106
sg257
I01
sbag0
(g245
g2
Ntp1128
Rp1129
(dp1130
g249
VRATIONALE
p1131
sg251
(lp1132
VModified condition/decision coverage is required by DO-178C starting at DAL-A (6.4.4.c)\u000a
p1133
asg254
V>>>\u000a
p1134
sg255
I7789
sg256
I7896
sg14
g1106
sg257
I01
sbasg106
(lp1135
g0
(g579
g2
Ntp1136
Rp1137
(dp1138
g583
VREQ-7
p1139
sg585
Nsg255
I7907
sg256
I7937
sg14
g1106
sg586
g208
sg6
g0
(g80
g81
V0f342ea1bc3d4754bc0ece304e697af4
p1140
tp1141
Rp1142
sbag0
(g579
g2
Ntp1143
Rp1144
(dp1145
g583
VREQ-11
p1146
sg585
Nsg255
I7937
sg256
I7968
sg14
g1106
sg586
g208
sg6
g0
(g80
g81
V89bc5c99595f4994aaa5a00ae23c4c0c
p1147
tp1148
Rp1149
sbasg255
I7611
sg256
I7968
sg14
g979
sg293
I00
sg236
(lp1150
sg295
I01
sg296
g1109
sg297
g109
(tRp1151
g269
(lp1152
g1111
asg1118
(lp1153
g1116
asg1124
(lp1154
g1122
asg1131
(lp1155
g1129
assg303
Nsg304
g307
sg310
g312
sg31
I231
sg314
I245
sg32
I1
sg315
I1
sg316
I7611
sg317
I7968
sg318
g0
(g319
g2
Ntp1156
Rp1157
(dp1158
g323
Nsbsg324
g0
(g80
g81
V48d46effb2374188ae0137ef361a5d7b
p1159
tp1160
Rp1161
sg328
I00
sg329
Nsg330
Nsg331
I01
sg332
I00
sbag0
(g260
g2
Ntp1162
Rp1163
(dp1164
g242
VREQUIREMENT
p1165
sg69
(lp1166
g0
(g245
g2
Ntp1167
Rp1168
(dp1169
g249
g269
sg251
(lp1170
VREQ-11
p1171
asg254
g114
sg255
I7983
sg256
I7995
sg14
g1163
sg257
I00
sbag0
(g245
g2
Ntp1172
Rp1173
(dp1174
g249
VTITLE
p1175
sg251
(lp1176
VCertification Evidence
p1177
asg254
g114
sg255
I7995
sg256
I8025
sg14
g1163
sg257
I00
sbag0
(g245
g2
Ntp1178
Rp1179
(dp1180
g249
VSTATEMENT
p1181
sg251
(lp1182
VThe interpreter shall support the generation of certification evidence\u000a
p1183
asg254
V>>>\u000a
p1184
sg255
I8025
sg256
I8115
sg14
g1163
sg257
I01
sbasg106
(lp1185
sg255
I7969
sg256
I8115
sg14
g979
sg293
I00
sg236
(lp1186
sg295
I01
sg296
g1166
sg297
g109
(tRp1187
g269
(lp1188
g1168
asg1175
(lp1189
g1173
asg1181
(lp1190
g1179
assg303
Nsg304
g307
sg310
g312
sg31
I246
sg314
I252
sg32
I1
sg315
I1
sg316
I7969
sg317
I8115
sg318
g0
(g319
g2
Ntp1191
Rp1192
(dp1193
g323
Nsbsg324
g0
(g80
g81
V54258c979cf74609bc996f6156242f08
p1194
tp1195
Rp1196
sg328
I00
sg329
Nsg330
Nsg331
I01
sg332
I00
sbasg903
VSECTION
p1197
sg255
I6951
sg256
I8129
sg14
g923
sg293
I01
sg295
I00
sg296
g982
sg297
g109
(tRp1198
g986
(lp1199
g984
assg303
Nsg304
g307
sg310
g312
sg31
I198
sg314
I254
sg32
I1
sg315
I1
sg316
I6951
sg317
I8129
sg318
g0
(g319
g2
Ntp1200
Rp1201
(dp1202
g323
Nsbsg324
g0
(g80
g81
Vd4edfc1f570342cd99af79b9c570e9b9
p1203
tp1204
Rp1205
sg328
I00
sg329
Nsg330
Nsg331
I01
sg332
I01
sbasg903
VSECTION
p1206
sg255
I6605
sg256
I8143
sg14
g4
sg293
I01
sg295
I00
sg296
g926
sg297
g109
(tRp1207
g930
(lp1208
g928
assg303
Nsg304
g307
sg310
g312
sg31
I185
sg314
I256
sg32
I1
sg315
I1
sg316
I6605
sg317
I8143
sg318
g0
(g319
g2
Ntp1209
Rp1210
(dp1211
g323
Nsbsg324
g0
(g80
g81
V39aa147f87a64964883367495399a71a
p1212
tp1213
Rp1214
sg328
I00
sg329
Nsg330
Nsg331
I01
sg332
I01
sbasg255
I0
sg256
I8143
sV_tx_filename
p1215
V/nix/store/g09vyc1rav50jryk8jzw8zh9v0ywhq06-requirements/requirements.sdoc
p1216
sV_tx_metamodel
p1217
NsV_tx_model_params
p1218
NsV_tx_parser
p1219
NsVreserved_title
p1220
g8
sVis_bundle_document
p1221
I00
sVfragments_from_files
p1222
(lp1223
sg303
I0
sg332
I01
sVmeta
p1224
Nsg324
g0
(g80
g81
Vdeb18d3bb7214cc8ae778e64e2e7770d
p1225
tp1226
Rp1227
sg328
I00
sVincluded_documents
p1228
(lp1229
sg318
g0
(cstrictdoc.backend.sdoc.models.document
SDocDocumentContext
p1230
g2
Ntp1231
Rp1232
(dp1233
g323
Nsbsg310
g312
sVng_including_document_from_file
p1234
NsV_tx_attrs
p1235
NsV_tx_peg_rule
p1236
Nsb.